Certificate:
    Data:
        Version: 3 (0x2)
        Serial Number:
            84:cc:a4:22:a2:8b:d9:31:f0:0d
    Signature Algorithm: ecdsa-with-SHA256
        Issuer: CN=SHAKEN Intermediate
        Validity
            Not Before: Oct 24 15:01:17 2022 GMT
            Not After : Oct 25 15:01:17 2022 GMT
        Subject: CN=SHAKEN 6628, O=Some org, C=US
        Subject Public Key Info:
            Public Key Algorithm: id-ecPublicKey
                Public-Key: (256 bit)
                pub: 
                    04:f0:fc:94:61:3c:da:45:fa:35:7c:3a:70:f0:e3:
                    5f:4d:7b:f4:24:10:8b:c7:1d:56:1b:d3:7e:8b:40:
                    c9:01:55:4e:c0:74:09:2f:a1:c0:1a:80:c1:10:1d:
                    a7:3a:c3:da:c0:d9:bf:7c:06:74:c0:a4:43:c5:fa:
                    94:4b:5a:2d:69
                ASN1 OID: prime256v1
                NIST CURVE: P-256
        X509v3 extensions:
            X509v3 Basic Constraints: critical
                CA:FALSE
            1.3.6.1.5.5.7.1.26: 
                0.....6628
    Signature Algorithm: ecdsa-with-SHA256
         30:45:02:20:78:8f:3f:e1:22:cd:41:94:d0:5f:b4:ff:a6:ee:
         eb:f9:5f:f8:22:d4:d7:74:c2:bf:72:4f:ef:0c:c2:1f:d2:69:
         02:21:00:80:23:21:cb:4e:05:48:12:dd:ed:5e:4f:d7:68:ad:
         a8:41:81:89:15:0a:3f:e5:af:bf:43:e3:04:da:c9:1b:ca
-----BEGIN CERTIFICATE-----
MIIBdTCCARugAwIBAgILAITMpCKii9kx8A0wCgYIKoZIzj0EAwIwHjEcMBoGA1UE
AxMTU0hBS0VOIEludGVybWVkaWF0ZTAeFw0yMjEwMjQxNTAxMTdaFw0yMjEwMjUx
NTAxMTdaMDYxFDASBgNVBAMTC1NIQUtFTiA2NjI4MREwDwYDVQQKEwhTb21lIG9y
ZzELMAkGA1UEBhMCVVMwWTATBgcqhkjOPQIBBggqhkjOPQMBBwNCAATw/JRhPNpF
+jV8OnDw419Ne/QkEIvHHVYb036LQMkBVU7AdAkvocAagMEQHac6w9rA2b98BnTA
pEPF+pRLWi1poygwJjAMBgNVHRMBAf8EAjAAMBYGCCsGAQUFBwEaBAowCKAGFgQ2
NjI4MAoGCCqGSM49BAMCA0gAMEUCIHiPP+EizUGU0F+0/6bu6/lf+CLU13TCv3JP
7wzCH9JpAiEAgCMhy04FSBLd7V5P12itqEGBiRUKP+Wvv0PjBNrJG8o=
-----END CERTIFICATE-----
