Certificate:
    Data:
        Version: 3 (0x2)
        Serial Number:
            92:4f:d0:0b:d4:0e:0a:ed:49:9a
    Signature Algorithm: ecdsa-with-SHA256
        Issuer: CN=SHAKEN Intermediate, O=Some org, C=US
        Validity
            Not Before: Oct 24 19:51:00 2022 GMT
            Not After : Oct 25 19:51:00 2022 GMT
        Subject: CN=SHAKEN 6628, O=Some org, C=US/serialNumber=12345
        Subject Public Key Info:
            Public Key Algorithm: id-ecPublicKey
                Public-Key: (256 bit)
                pub: 
                    04:93:28:f9:34:54:b9:e3:49:13:a1:d7:c6:a7:6f:
                    50:e7:58:42:35:d9:a5:08:58:b5:ac:ae:e5:89:5f:
                    29:78:d8:5a:5b:96:53:02:43:99:f1:57:60:ae:b1:
                    08:e5:a4:31:75:b3:fd:fe:4a:13:56:a7:1b:1e:6c:
                    b2:95:94:0a:f6
                ASN1 OID: prime256v1
                NIST CURVE: P-256
        X509v3 extensions:
            X509v3 Basic Constraints: critical
                CA:FALSE
            X509v3 Key Usage: critical
                Digital Signature, Data Encipherment
            X509v3 Certificate Policies: 
                Policy: 2.16.840.1.114569.1.1.3

            X509v3 Authority Key Identifier: 
                keyid:18:51:E7:EB:CE:CD:E5:7F:CA:63:BF:4C:11:B9:AD:A1:78:C7:60:D0

            X509v3 Subject Key Identifier: 
                1C:A2:62:7A:7B:93:7E:D0:A3:F8:85:42:BB:DA:B2:A9:BE:8F:6C:01
            X509v3 CRL Distribution Points: 

                Full Name:
                  URI:http://crls.pki.goog/gts1c3/QOvJ0N1sT2A.crl

            1.3.6.1.5.5.7.1.26: 
                0.....6628
    Signature Algorithm: ecdsa-with-SHA256
         30:45:02:21:00:91:3a:ea:85:bd:75:91:d2:7b:eb:f1:d6:48:
         c4:02:97:09:83:80:4b:25:fd:fa:bd:37:73:28:2d:68:36:20:
         79:02:20:24:19:bf:4b:36:69:26:a2:e3:05:81:a2:92:91:16:
         6c:c1:a2:87:1c:e0:52:aa:1f:58:df:08:89:30:ab:b7:b1
-----BEGIN CERTIFICATE-----
MIICTjCCAfSgAwIBAgILAJJP0AvUDgrtSZowCgYIKoZIzj0EAwIwPjEcMBoGA1UE
AxMTU0hBS0VOIEludGVybWVkaWF0ZTERMA8GA1UEChMIU29tZSBvcmcxCzAJBgNV
BAYTAlVTMB4XDTIyMTAyNDE5NTEwMFoXDTIyMTAyNTE5NTEwMFowRjEUMBIGA1UE
AxMLU0hBS0VOIDY2MjgxETAPBgNVBAoTCFNvbWUgb3JnMQswCQYDVQQGEwJVUzEO
MAwGA1UEBRMFMTIzNDUwWTATBgcqhkjOPQIBBggqhkjOPQMBBwNCAASTKPk0VLnj
SROh18anb1DnWEI12aUIWLWsruWJXyl42FpbllMCQ5nxV2CusQjlpDF1s/3+ShNW
pxsebLKVlAr2o4HQMIHNMAwGA1UdEwEB/wQCMAAwDgYDVR0PAQH/BAQDAgSQMBcG
A1UdIAQQMA4wDAYKYIZIAYb/CQEBAzAfBgNVHSMEGDAWgBQYUefrzs3lf8pjv0wR
ua2heMdg0DAdBgNVHQ4EFgQUHKJienuTftCj+IVCu9qyqb6PbAEwPAYDVR0fBDUw
MzAxoC+gLYYraHR0cDovL2NybHMucGtpLmdvb2cvZ3RzMWMzL1FPdkowTjFzVDJB
LmNybDAWBggrBgEFBQcBGgQKMAigBhYENjYyODAKBggqhkjOPQQDAgNIADBFAiEA
kTrqhb11kdJ76/HWSMQClwmDgEsl/fq9N3MoLWg2IHkCICQZv0s2aSai4wWBopKR
FmzBoocc4FKqH1jfCIkwq7ex
-----END CERTIFICATE-----
