Certificate:
    Data:
        Version: 3 (0x2)
        Serial Number:
            0a:03:04:32:a0:b6:96:23:d2:bd
        Signature Algorithm: ecdsa-with-SHA256
        Issuer: CN = SHAKEN CA, O = ATIS, C = US
        Validity
            Not Before: Aug 18 22:00:00 2021 GMT
            Not After : Aug 18 22:00:00 2022 GMT
        Subject: CN = SHAKEN Leaf, O = ATIS, C = US
        Subject Public Key Info:
            Public Key Algorithm: id-ecPublicKey
                Public-Key: (256 bit)
                pub:
                    04:df:5e:b0:91:41:ec:74:94:2f:a2:f3:97:ec:53:
                    f1:78:32:82:4e:0a:c0:d1:f6:21:94:35:56:e5:bd:
                    c3:ab:17:f4:43:1b:8d:79:90:63:a8:32:c2:e6:64:
                    05:75:97:72:06:bc:6a:28:e0:b6:c6:96:2b:d2:92:
                    e4:b7:8b:5c:f0
                ASN1 OID: prime256v1
                NIST CURVE: P-256
        X509v3 extensions:
            X509v3 Basic Constraints: critical
                CA:FALSE
            X509v3 Certificate Policies: 
                Policy: 2.16.840.1.114569.1.1.3
    Signature Algorithm: ecdsa-with-SHA256
    Signature Value:
        30:45:02:20:5c:28:ac:00:f1:32:bf:9f:b1:c6:91:d7:ce:7e:
        15:7e:98:da:a0:39:b2:5e:1f:ff:b0:5c:f3:75:98:0f:15:31:
        02:21:00:be:48:24:17:a7:05:71:1e:3b:15:94:63:d8:88:6e:
        90:2a:ab:d1:b5:8a:38:1a:33:3a:00:b6:a7:99:7b:0f:18
-----BEGIN CERTIFICATE-----
MIIBgzCCASmgAwIBAgIKCgMEMqC2liPSvTAKBggqhkjOPQQDAjAwMRIwEAYDVQQD
EwlTSEFLRU4gQ0ExDTALBgNVBAoTBEFUSVMxCzAJBgNVBAYTAlVTMB4XDTIxMDgx
ODIyMDAwMFoXDTIyMDgxODIyMDAwMFowMjEUMBIGA1UEAxMLU0hBS0VOIExlYWYx
DTALBgNVBAoTBEFUSVMxCzAJBgNVBAYTAlVTMFkwEwYHKoZIzj0CAQYIKoZIzj0D
AQcDQgAE316wkUHsdJQvovOX7FPxeDKCTgrA0fYhlDVW5b3Dqxf0QxuNeZBjqDLC
5mQFdZdyBrxqKOC2xpYr0pLkt4tc8KMpMCcwDAYDVR0TAQH/BAIwADAXBgNVHSAE
EDAOMAwGCmCGSAGG/wkBAQMwCgYIKoZIzj0EAwIDSAAwRQIgXCisAPEyv5+xxpHX
zn4VfpjaoDmyXh//sFzzdZgPFTECIQC+SCQXpwVxHjsVlGPYiG6QKqvRtYo4GjM6
ALanmXsPGA==
-----END CERTIFICATE-----