Certificate:
    Data:
        Version: 3 (0x2)
        Serial Number:
            6a:d1:84:1d:49:5e:bb:53:6d:d4
    Signature Algorithm: ecdsa-with-SHA256
        Issuer: CN=SHAKEN Intermediate, O=Some org
        Validity
            Not Before: Oct 24 19:36:18 2022 GMT
            Not After : Oct 25 19:36:18 2022 GMT
        Subject: CN=SHAKEN 6628, O=Some org, C=US/serialNumber=12345
        Subject Public Key Info:
            Public Key Algorithm: id-ecPublicKey
                Public-Key: (256 bit)
                pub: 
                    04:24:d5:38:68:28:66:43:13:5f:35:59:d1:0b:d0:
                    ba:99:b1:6f:2c:31:b9:4f:18:85:9f:8e:dc:6d:86:
                    9c:da:3e:42:c4:d2:9c:a8:12:de:5a:1e:2a:5b:ea:
                    3a:e1:00:33:a0:02:98:90:3b:0f:cd:04:ee:e5:45:
                    28:24:26:1a:76
                ASN1 OID: prime256v1
                NIST CURVE: P-256
        X509v3 extensions:
            X509v3 Basic Constraints: critical
                CA:FALSE
            X509v3 Key Usage: 
                Digital Signature
            X509v3 Certificate Policies: 
                Policy: 2.16.840.1.114569.1.1.3

            X509v3 Authority Key Identifier: 
                keyid:AB:0F:68:0A:17:26:F4:FC:DD:89:3C:11:F2:37:7A:FE:10:FD:5B:C7

            X509v3 Subject Key Identifier: 
                29:77:34:E8:D0:F9:83:19:53:7D:43:8E:36:1D:4A:98:BD:C4:41:3D
            X509v3 CRL Distribution Points: 

                Full Name:
                  URI:http://crls.pki.goog/gts1c3/QOvJ0N1sT2A.crl

            1.3.6.1.5.5.7.1.26: 
                0.....6628
            X509v3 Extended Key Usage: 
                1.2.3.4.5
    Signature Algorithm: ecdsa-with-SHA256
         30:45:02:21:00:97:29:ba:19:31:a0:f2:ca:50:ea:d3:19:80:
         b9:0e:49:97:f5:e0:07:f5:97:f8:89:17:09:49:0f:f8:9c:b3:
         c1:02:20:56:1c:b5:b7:a0:5e:c8:59:3e:60:90:6b:f5:e8:c7:
         e2:cf:ab:59:2d:1a:8e:45:8e:45:91:68:fb:4d:bd:e0:a6
-----BEGIN CERTIFICATE-----
MIICTjCCAfSgAwIBAgIKatGEHUleu1Nt1DAKBggqhkjOPQQDAjAxMRwwGgYDVQQD
ExNTSEFLRU4gSW50ZXJtZWRpYXRlMREwDwYDVQQKEwhTb21lIG9yZzAeFw0yMjEw
MjQxOTM2MThaFw0yMjEwMjUxOTM2MThaMEYxFDASBgNVBAMTC1NIQUtFTiA2NjI4
MREwDwYDVQQKEwhTb21lIG9yZzELMAkGA1UEBhMCVVMxDjAMBgNVBAUTBTEyMzQ1
MFkwEwYHKoZIzj0CAQYIKoZIzj0DAQcDQgAEJNU4aChmQxNfNVnRC9C6mbFvLDG5
TxiFn47cbYac2j5CxNKcqBLeWh4qW+o64QAzoAKYkDsPzQTu5UUoJCYadqOB3jCB
2zAMBgNVHRMBAf8EAjAAMAsGA1UdDwQEAwIHgDAXBgNVHSAEEDAOMAwGCmCGSAGG
/wkBAQMwHwYDVR0jBBgwFoAUqw9oChcm9PzdiTwR8jd6/hD9W8cwHQYDVR0OBBYE
FCl3NOjQ+YMZU31DjjYdSpi9xEE9MDwGA1UdHwQ1MDMwMaAvoC2GK2h0dHA6Ly9j
cmxzLnBraS5nb29nL2d0czFjMy9RT3ZKME4xc1QyQS5jcmwwFgYIKwYBBQUHARoE
CjAIoAYWBDY2MjgwDwYDVR0lBAgwBgYEKgMEBTAKBggqhkjOPQQDAgNIADBFAiEA
lym6GTGg8spQ6tMZgLkOSZf14Af1l/iJFwlJD/ics8ECIFYctbegXshZPmCQa/Xo
x+LPq1ktGo5FjkWRaPtNveCm
-----END CERTIFICATE-----
