Certificate:
    Data:
        Version: 3 (0x2)
        Serial Number:
            d4:3f:57:8a:3c:4b:af:1c:1f:54
    Signature Algorithm: ecdsa-with-SHA256
        Issuer: CN=SHAKEN Intermediate, O=Some org, C=US
        Validity
            Not Before: Oct 24 18:08:11 2022 GMT
            Not After : Oct 25 18:08:11 2022 GMT
        Subject: CN=SHAKEN 6628, O=Some org, C=US/serialNumber=12345
        Subject Public Key Info:
            Public Key Algorithm: id-ecPublicKey
                Public-Key: (256 bit)
                pub: 
                    04:90:f9:36:bd:53:9f:65:c3:26:f9:eb:41:60:14:
                    bf:78:ec:1b:d5:80:0b:16:8a:ea:80:a4:88:58:06:
                    a1:d8:a8:8b:67:6e:2e:e2:bd:e3:d1:f5:12:9a:18:
                    8c:c3:7e:d1:ff:72:ec:3d:90:b7:1f:87:70:6f:ec:
                    da:73:17:96:40
                ASN1 OID: prime256v1
                NIST CURVE: P-256
        X509v3 extensions:
            X509v3 Basic Constraints: 
                CA:FALSE
            X509v3 Key Usage: 
                Digital Signature, Certificate Sign
            X509v3 Authority Key Identifier: 
                keyid:2B:2A:36:E5:C0:30:B0:3F:57:ED:DD:A7:9D:A2:EE:70:75:EB:69:7D

            1.3.6.1.5.5.7.1.26: 
                0.....6628
    Signature Algorithm: ecdsa-with-SHA256
         30:45:02:21:00:a3:7e:cd:5a:0e:3a:e5:40:ec:98:37:ba:83:
         07:82:17:e8:c3:49:79:0d:93:e2:06:15:dd:f2:10:ed:a7:d5:
         17:02:20:26:da:1a:92:9f:39:c8:a4:8b:3c:01:d8:dd:97:51:
         67:db:3e:fb:b9:9a:ad:c3:23:f4:95:31:d0:29:93:ca:01
-----BEGIN CERTIFICATE-----
MIIB0DCCAXagAwIBAgILANQ/V4o8S68cH1QwCgYIKoZIzj0EAwIwPjEcMBoGA1UE
AxMTU0hBS0VOIEludGVybWVkaWF0ZTERMA8GA1UEChMIU29tZSBvcmcxCzAJBgNV
BAYTAlVTMB4XDTIyMTAyNDE4MDgxMVoXDTIyMTAyNTE4MDgxMVowRjEUMBIGA1UE
AxMLU0hBS0VOIDY2MjgxETAPBgNVBAoTCFNvbWUgb3JnMQswCQYDVQQGEwJVUzEO
MAwGA1UEBRMFMTIzNDUwWTATBgcqhkjOPQIBBggqhkjOPQMBBwNCAASQ+Ta9U59l
wyb560FgFL947BvVgAsWiuqApIhYBqHYqItnbi7ivePR9RKaGIzDftH/cuw9kLcf
h3Bv7NpzF5ZAo1MwUTAJBgNVHRMEAjAAMAsGA1UdDwQEAwIChDAfBgNVHSMEGDAW
gBQrKjblwDCwP1ft3aedou5wdetpfTAWBggrBgEFBQcBGgQKMAigBhYENjYyODAK
BggqhkjOPQQDAgNIADBFAiEAo37NWg465UDsmDe6gweCF+jDSXkNk+IGFd3yEO2n
1RcCICbaGpKfOcikizwB2N2XUWfbPvu5mq3DI/SVMdApk8oB
-----END CERTIFICATE-----
