Certificate:
    Data:
        Version: 3 (0x2)
        Serial Number:
            1b:e9:b8:fe:a0:22:75:07:33:48
    Signature Algorithm: ecdsa-with-SHA256
        Issuer: 
        Validity
            Not Before: Oct 24 22:13:38 2022 GMT
            Not After : Oct 25 22:13:38 2022 GMT
        Subject: 
        Subject Public Key Info:
            Public Key Algorithm: id-ecPublicKey
                Public-Key: (256 bit)
                pub: 
                    04:3e:b0:1d:bc:73:14:3c:19:6d:70:b2:69:a7:56:
                    d2:ef:54:6f:5e:70:88:f3:a0:49:35:6f:95:35:7c:
                    2a:51:e7:be:ee:6f:74:39:84:fa:a4:0a:d8:68:ec:
                    96:cd:9b:27:66:85:a4:d3:70:75:14:49:9d:07:0f:
                    c4:b8:cc:7a:96
                ASN1 OID: prime256v1
                NIST CURVE: P-256
        X509v3 extensions:
            X509v3 Basic Constraints: critical
                CA:TRUE
            X509v3 Key Usage: critical
                Certificate Sign
            X509v3 Certificate Policies: 
                Policy: 2.16.840.1.114569.1.1.3
                Policy: 2.16.840.1.114569.1.1.1

            X509v3 Authority Key Identifier: 
                keyid:F3:1A:55:DA:E1:B6:CC:9E:FF:8D:68:2E:DF:37:F3:58:71:E9:A7:6C

            X509v3 Subject Key Identifier: 
                66:4A:FE:9F:9E:DE:71:A1:9C:2A:32:53:19:33:9C:60:1E:9B:A1:A9
    Signature Algorithm: ecdsa-with-SHA256
         30:44:02:20:7d:3c:ce:85:fb:17:9a:a3:04:26:1e:2d:12:4c:
         cf:f3:28:9c:e9:fa:96:54:86:1c:9b:1d:34:8a:f2:7c:d0:9b:
         02:20:26:bd:0e:45:a8:35:d7:c8:03:52:28:8e:43:e9:1d:9f:
         52:0f:4e:b7:12:e6:e7:15:3a:2f:cb:a9:35:4a:d7:31
-----BEGIN CERTIFICATE-----
MIIBgzCCASqgAwIBAgIKG+m4/qAidQczSDAKBggqhkjOPQQDAjAAMB4XDTIyMTAy
NDIyMTMzOFoXDTIyMTAyNTIyMTMzOFowADBZMBMGByqGSM49AgEGCCqGSM49AwEH
A0IABD6wHbxzFDwZbXCyaadW0u9Ub15wiPOgSTVvlTV8KlHnvu5vdDmE+qQK2Gjs
ls2bJ2aFpNNwdRRJnQcPxLjMepajgYswgYgwDwYDVR0TAQH/BAUwAwEB/zAOBgNV
HQ8BAf8EBAMCAgQwJQYDVR0gBB4wHDAMBgpghkgBhv8JAQEDMAwGCmCGSAGG/wkB
AQEwHwYDVR0jBBgwFoAU8xpV2uG2zJ7/jWgu3zfzWHHpp2wwHQYDVR0OBBYEFGZK
/p+e3nGhnCoyUxkznGAem6GpMAoGCCqGSM49BAMCA0cAMEQCIH08zoX7F5qjBCYe
LRJMz/MonOn6llSGHJsdNIryfNCbAiAmvQ5FqDXXyANSKI5D6R2fUg9OtxLm5xU6
L8upNUrXMQ==
-----END CERTIFICATE-----
