Certificate:
    Data:
        Version: 3 (0x2)
        Serial Number:
            9f:4a:3e:b0:e7:50:db:7d:3e:93
    Signature Algorithm: ecdsa-with-SHA256
        Issuer: CN=SHAKEN Root, O=Some org, C=US
        Validity
            Not Before: Oct 24 21:51:54 2022 GMT
            Not After : Oct 25 21:51:54 2022 GMT
        Subject: CN=SHAKEN Root, O=Some org, C=US
        Subject Public Key Info:
            Public Key Algorithm: id-ecPublicKey
                Public-Key: (256 bit)
                pub: 
                    04:ce:0e:4a:a6:0c:de:22:68:1c:8b:48:c3:dd:aa:
                    20:99:d1:a1:c8:86:d6:8b:f1:d7:6a:5d:6d:8b:67:
                    36:13:9c:06:0f:f3:da:e3:8a:d5:ff:2a:83:09:0e:
                    76:61:00:b5:f1:17:f3:f3:85:9c:a6:71:79:01:99:
                    28:e8:34:f7:a0
                ASN1 OID: prime256v1
                NIST CURVE: P-256
        X509v3 extensions:
            X509v3 Basic Constraints: critical
                CA:TRUE
            X509v3 Key Usage: critical
                Certificate Sign
            X509v3 Certificate Policies: 
                Policy: 2.16.840.1.114569.1.1.3

            X509v3 Authority Key Identifier: 
                keyid:C3:34:A3:F0:4F:D8:72:1A:C2:FB:2F:6F:10:4F:58:EC:49:2B:89:DD

            X509v3 Subject Key Identifier: 
                E7:9C:1B:AF:63:E9:2B:47:48:49:6A:6E:F3:79:5E:FA:21:63:8D:67
    Signature Algorithm: ecdsa-with-SHA256
         30:44:02:20:4a:c6:d7:37:8d:5f:10:a3:92:49:7e:38:13:0d:
         85:d3:7b:e0:5b:c6:27:1b:0e:a0:78:6d:47:fc:ee:22:cf:4c:
         02:20:0c:83:9a:c1:7d:20:14:81:6e:f2:0c:07:20:6a:2d:87:
         ec:58:64:82:69:87:6c:ce:39:76:a3:b7:97:24:9c:df
-----BEGIN CERTIFICATE-----
MIIB4DCCAYegAwIBAgILAJ9KPrDnUNt9PpMwCgYIKoZIzj0EAwIwNjEUMBIGA1UE
AxMLU0hBS0VOIFJvb3QxETAPBgNVBAoTCFNvbWUgb3JnMQswCQYDVQQGEwJVUzAe
Fw0yMjEwMjQyMTUxNTRaFw0yMjEwMjUyMTUxNTRaMDYxFDASBgNVBAMTC1NIQUtF
TiBSb290MREwDwYDVQQKEwhTb21lIG9yZzELMAkGA1UEBhMCVVMwWTATBgcqhkjO
PQIBBggqhkjOPQMBBwNCAATODkqmDN4iaByLSMPdqiCZ0aHIhtaL8ddqXW2LZzYT
nAYP89rjitX/KoMJDnZhALXxF/PzhZymcXkBmSjoNPego3wwejAPBgNVHRMBAf8E
BTADAQH/MA4GA1UdDwEB/wQEAwICBDAXBgNVHSAEEDAOMAwGCmCGSAGG/wkBAQMw
HwYDVR0jBBgwFoAUwzSj8E/YchrC+y9vEE9Y7Ekrid0wHQYDVR0OBBYEFOecG69j
6StHSElqbvN5XvohY41nMAoGCCqGSM49BAMCA0cAMEQCIErG1zeNXxCjkkl+OBMN
hdN74FvGJxsOoHhtR/zuIs9MAiAMg5rBfSAUgW7yDAcgai2H7FhkgmmHbM45dqO3
lySc3w==
-----END CERTIFICATE-----
