Certificate:
    Data:
        Version: 3 (0x2)
        Serial Number:
            19:c2:ce:d4:9f:72:d9:07:9d:c7
    Signature Algorithm: ecdsa-with-SHA256
        Issuer: CN=SHAKEN Intermediate, O=Some org, C=US
        Validity
            Not Before: Oct 27 10:01:53 2022 GMT
            Not After : Oct 28 10:01:53 2022 GMT
        Subject: CN=SHAKEN 6628, O=Some org, C=US/serialNumber=12345
        Subject Public Key Info:
            Public Key Algorithm: id-ecPublicKey
                Public-Key: (256 bit)
                pub: 
                    04:3e:ad:18:da:64:d3:98:a0:57:43:6b:8d:34:c4:
                    44:ad:87:28:59:5d:9e:93:bf:fe:4c:1b:49:76:be:
                    af:84:ef:18:7a:9f:27:cc:ab:f2:3d:75:c1:da:51:
                    50:67:e2:35:84:f2:cb:1d:fe:dd:29:69:b6:b5:3f:
                    7f:b0:0c:a9:7d
                ASN1 OID: prime256v1
                NIST CURVE: P-256
        X509v3 extensions:
            X509v3 Basic Constraints: critical
                CA:FALSE
            X509v3 Key Usage: critical
                Digital Signature
            X509v3 Certificate Policies: 
                Policy: 2.16.840.1.114569.1.1.3

            X509v3 Authority Key Identifier: 
                keyid:B1:95:0C:03:96:58:26:82:58:40:39:D0:EF:0C:65:0D:BD:01:B0:78

            X509v3 Subject Key Identifier: 
                9C:1A:D3:F8:25:A6:D1:08:ED:61:29:6B:5A:F9:C7:EF:7E:6A:41:8D
            X509v3 CRL Distribution Points: 

                Full Name:
                  URI:file://authenticate-api.iconectiv.com/download/v1/crl

            1.3.6.1.5.5.7.1.26: 
                0.....6628
    Signature Algorithm: ecdsa-with-SHA256
         30:45:02:20:40:c4:a5:25:3b:12:00:55:5e:5f:af:ad:84:93:
         b2:58:e0:52:77:02:a0:ec:49:da:ad:1d:b0:de:03:98:7b:4f:
         02:21:00:90:8e:14:26:56:31:d7:2c:57:69:68:0c:2f:ae:05:
         62:d6:87:f5:ce:eb:aa:77:1e:bc:94:82:a2:9c:06:16:82
-----BEGIN CERTIFICATE-----
MIICVzCCAf2gAwIBAgIKGcLO1J9y2QedxzAKBggqhkjOPQQDAjA+MRwwGgYDVQQD
ExNTSEFLRU4gSW50ZXJtZWRpYXRlMREwDwYDVQQKEwhTb21lIG9yZzELMAkGA1UE
BhMCVVMwHhcNMjIxMDI3MTAwMTUzWhcNMjIxMDI4MTAwMTUzWjBGMRQwEgYDVQQD
EwtTSEFLRU4gNjYyODERMA8GA1UEChMIU29tZSBvcmcxCzAJBgNVBAYTAlVTMQ4w
DAYDVQQFEwUxMjM0NTBZMBMGByqGSM49AgEGCCqGSM49AwEHA0IABD6tGNpk05ig
V0NrjTTERK2HKFldnpO//kwbSXa+r4TvGHqfJ8yr8j11wdpRUGfiNYTyyx3+3Slp
trU/f7AMqX2jgdowgdcwDAYDVR0TAQH/BAIwADAOBgNVHQ8BAf8EBAMCB4AwFwYD
VR0gBBAwDjAMBgpghkgBhv8JAQEDMB8GA1UdIwQYMBaAFLGVDAOWWCaCWEA50O8M
ZQ29AbB4MB0GA1UdDgQWBBScGtP4JabRCO1hKWta+cfvfmpBjTBGBgNVHR8EPzA9
MDugOaA3hjVmaWxlOi8vYXV0aGVudGljYXRlLWFwaS5pY29uZWN0aXYuY29tL2Rv
d25sb2FkL3YxL2NybDAWBggrBgEFBQcBGgQKMAigBhYENjYyODAKBggqhkjOPQQD
AgNIADBFAiBAxKUlOxIAVV5fr62Ek7JY4FJ3AqDsSdqtHbDeA5h7TwIhAJCOFCZW
MdcsV2loDC+uBWLWh/XO66p3HryUgqKcBhaC
-----END CERTIFICATE-----
