Certificate:
    Data:
        Version: 2 (0x1)
        Serial Number:
            72:29:94:be:22:0f:86:28:95:a7
    Signature Algorithm: ecdsa-with-SHA256
        Issuer: CN=SHAKEN Root, O=Some org, C=US
        Validity
            Not Before: Oct 25 17:05:40 2022 GMT
            Not After : Oct 26 17:05:40 2022 GMT
        Subject: CN=SHAKEN Intermediate, O=Some org, C=US
        Subject Public Key Info:
            Public Key Algorithm: id-ecPublicKey
                Public-Key: (256 bit)
                pub: 
                    04:4b:ee:11:51:08:59:1e:70:7d:ea:0e:e6:57:3e:
                    f3:05:68:63:3a:d6:e7:ab:a7:33:fb:4b:31:ed:12:
                    bf:87:86:f6:b4:1b:96:bf:23:86:a5:f1:1d:9d:28:
                    cc:a7:f2:84:d1:ff:90:0a:03:d4:99:bb:13:1b:21:
                    6f:27:2b:90:cb
                ASN1 OID: prime256v1
                NIST CURVE: P-256
        X509v3 extensions:
            X509v3 Basic Constraints: critical
                CA:TRUE
            X509v3 Key Usage: critical
                Certificate Sign
            X509v3 Certificate Policies: 
                Policy: 2.16.840.1.114569.1.1.3

            X509v3 Authority Key Identifier: 
                keyid:E7:C6:7F:51:7C:FC:8C:0D:39:09:57:D0:D9:DA:5C:3B:D9:6A:2E:22

            X509v3 Subject Key Identifier: 
                4C:84:86:99:1D:11:1A:36:FA:BE:B6:D3:42:74:C5:FC:41:70:B9:57
            X509v3 CRL Distribution Points: 

                Full Name:
                  URI:http://crls.pki.goog/gts1c3/QOvJ0N1sT2A.crl

    Signature Algorithm: ecdsa-with-SHA256
         30:46:02:21:00:ff:a9:ef:ef:a9:53:bf:6d:08:47:dd:3a:90:
         98:47:59:be:6c:6c:f5:a2:9b:73:e4:12:f7:4e:c2:84:55:8c:
         9e:02:21:00:e7:0e:6c:7b:5f:86:d8:38:51:08:0e:a7:4e:fb:
         ef:87:c9:1f:dc:b4:95:a7:68:74:ff:b7:97:11:61:16:b7:9b
-----BEGIN CERTIFICATE-----
MIICKTCCAc6gAwIBAQIKcimUviIPhiiVpzAKBggqhkjOPQQDAjA2MRQwEgYDVQQD
EwtTSEFLRU4gUm9vdDERMA8GA1UEChMIU29tZSBvcmcxCzAJBgNVBAYTAlVTMB4X
DTIyMTAyNTE3MDU0MFoXDTIyMTAyNjE3MDU0MFowPjEcMBoGA1UEAxMTU0hBS0VO
IEludGVybWVkaWF0ZTERMA8GA1UEChMIU29tZSBvcmcxCzAJBgNVBAYTAlVTMFkw
EwYHKoZIzj0CAQYIKoZIzj0DAQcDQgAES+4RUQhZHnB96g7mVz7zBWhjOtbnq6cz
+0sx7RK/h4b2tBuWvyOGpfEdnSjMp/KE0f+QCgPUmbsTGyFvJyuQy6OBuzCBuDAP
BgNVHRMBAf8EBTADAQH/MA4GA1UdDwEB/wQEAwICBDAXBgNVHSAEEDAOMAwGCmCG
SAGG/wkBAQMwHwYDVR0jBBgwFoAU58Z/UXz8jA05CVfQ2dpcO9lqLiIwHQYDVR0O
BBYEFEyEhpkdERo2+r6200J0xfxBcLlXMDwGA1UdHwQ1MDMwMaAvoC2GK2h0dHA6
Ly9jcmxzLnBraS5nb29nL2d0czFjMy9RT3ZKME4xc1QyQS5jcmwwCgYIKoZIzj0E
AwIDSQAwRgIhAP+p7++pU79tCEfdOpCYR1m+bGz1optz5BL3TsKEVYyeAiEA5w5s
e1+G2DhRCA6nTvvvh8kf3LSVp2h0/7eXEWEWt5s=
-----END CERTIFICATE-----
