Certificate:
    Data:
        Version: 3 (0x2)
        Serial Number:
            7c:2b:da:2d:6c:f0:80:19:ec:03
    Signature Algorithm: ecdsa-with-SHA256
        Issuer: CN=SHAKEN Intermediate, O=Some org, C=US
        Validity
            Not Before: Oct 24 20:21:22 2022 GMT
            Not After : Oct 25 20:21:22 2022 GMT
        Subject: CN=SHAKEN 6628, O=Some org, C=US/serialNumber=12345
        Subject Public Key Info:
            Public Key Algorithm: id-ecPublicKey
                Public-Key: (384 bit)
                pub: 
                    04:24:25:65:12:4d:81:55:2d:e9:5e:4d:30:ad:51:
                    32:65:34:f1:ce:d5:73:f1:6c:78:0c:ec:4b:97:3d:
                    53:8b:c9:4c:75:b5:de:22:73:b1:91:17:21:cc:44:
                    e1:33:38:45:05:c9:87:dd:78:56:7a:d8:ea:23:ad:
                    5c:8a:f5:0a:cd:6d:e2:25:ee:fe:0f:e9:83:c7:31:
                    70:e2:b2:dd:46:3a:8c:57:8f:49:3f:3e:c6:d0:4c:
                    12:99:94:2a:ac:bc:7d
                ASN1 OID: secp384r1
                NIST CURVE: P-384
        X509v3 extensions:
            X509v3 Basic Constraints: critical
                CA:FALSE
            X509v3 Key Usage: critical
                Digital Signature, Data Encipherment
            X509v3 Certificate Policies: 
                Policy: 2.16.840.1.114569.1.1.3

            X509v3 Authority Key Identifier: 
                keyid:CF:95:64:76:76:C9:62:9D:93:A7:B7:79:BA:6F:25:FB:EC:7D:99:70

            X509v3 Subject Key Identifier: 
                D2:48:E6:01:41:FD:D7:29:80:9F:04:F1:BE:0E:A6:6F:8F:D5:BC:69
            X509v3 CRL Distribution Points: 

                Full Name:
                  URI:http://crls.pki.goog/gts1c3/QOvJ0N1sT2A.crl

            1.3.6.1.5.5.7.1.26: 
                0.....6629
    Signature Algorithm: ecdsa-with-SHA256
         30:66:02:31:00:e0:3e:ec:d5:fc:6e:2d:aa:86:e3:45:06:64:
         fc:6e:c0:6b:8f:23:90:94:26:cb:ab:0e:93:e8:a5:5d:df:7c:
         f1:11:fa:49:48:4f:21:2f:5c:d5:4c:34:07:a6:2a:b7:6e:02:
         31:00:fa:b6:b7:54:60:c5:49:b6:e7:c8:76:a4:58:03:73:02:
         92:fd:0a:d7:7d:8c:e9:b9:cf:c5:b7:0c:ba:4d:e1:80:fd:76:
         90:c4:8e:e3:f9:97:fb:ee:3e:28:98:44:7e:30
-----BEGIN CERTIFICATE-----
MIICizCCAhCgAwIBAgIKfCvaLWzwgBnsAzAKBggqhkjOPQQDAjA+MRwwGgYDVQQD
ExNTSEFLRU4gSW50ZXJtZWRpYXRlMREwDwYDVQQKEwhTb21lIG9yZzELMAkGA1UE
BhMCVVMwHhcNMjIxMDI0MjAyMTIyWhcNMjIxMDI1MjAyMTIyWjBGMRQwEgYDVQQD
EwtTSEFLRU4gNjYyODERMA8GA1UEChMIU29tZSBvcmcxCzAJBgNVBAYTAlVTMQ4w
DAYDVQQFEwUxMjM0NTB2MBAGByqGSM49AgEGBSuBBAAiA2IABCQlZRJNgVUt6V5N
MK1RMmU08c7Vc/FseAzsS5c9U4vJTHW13iJzsZEXIcxE4TM4RQXJh914VnrY6iOt
XIr1Cs1t4iXu/g/pg8cxcOKy3UY6jFePST8+xtBMEpmUKqy8faOB0DCBzTAMBgNV
HRMBAf8EAjAAMA4GA1UdDwEB/wQEAwIEkDAXBgNVHSAEEDAOMAwGCmCGSAGG/wkB
AQMwHwYDVR0jBBgwFoAUz5VkdnbJYp2Tp7d5um8l++x9mXAwHQYDVR0OBBYEFNJI
5gFB/dcpgJ8E8b4Opm+P1bxpMDwGA1UdHwQ1MDMwMaAvoC2GK2h0dHA6Ly9jcmxz
LnBraS5nb29nL2d0czFjMy9RT3ZKME4xc1QyQS5jcmwwFgYIKwYBBQUHARoECjAI
oAYWBDY2MjkwCgYIKoZIzj0EAwIDaQAwZgIxAOA+7NX8bi2qhuNFBmT8bsBrjyOQ
lCbLqw6T6KVd33zxEfpJSE8hL1zVTDQHpiq3bgIxAPq2t1RgxUm258h2pFgDcwKS
/QrXfYzpuc/Ftwy6TeGA/XaQxI7j+Zf77j4omER+MA==
-----END CERTIFICATE-----
