Certificate:
    Data:
        Version: 3 (0x2)
        Serial Number:
            35:40:fe:75:56:f2:57:59:f0:ea
    Signature Algorithm: sha256WithRSAEncryption
        Issuer: CN=SHAKEN Root, O=Some org, C=US
        Validity
            Not Before: Oct 25 16:57:54 2022 GMT
            Not After : Oct 26 16:57:54 2022 GMT
        Subject: CN=SHAKEN Intermediate, O=Some org, C=US
        Subject Public Key Info:
            Public Key Algorithm: rsaEncryption
                Public-Key: (2048 bit)
                Modulus:
                    00:d7:08:42:69:54:66:07:c5:14:be:06:02:67:fe:
                    c0:06:b1:31:10:4a:6e:0b:87:92:24:cb:f7:d4:da:
                    7f:81:0c:86:af:a1:24:48:d0:bf:9f:79:86:2b:a2:
                    ff:f8:d6:ee:d3:13:6b:0d:e0:06:5c:68:91:98:f1:
                    bf:6e:6a:74:2f:35:28:e6:5c:96:0c:c5:1f:3a:4c:
                    fb:fc:f9:98:61:a9:7d:8f:d7:37:16:d8:d3:f6:82:
                    61:56:66:80:ca:44:70:02:a7:ed:ae:e5:27:c2:12:
                    10:84:7b:ba:19:d4:30:95:62:7f:4b:e0:3f:f5:e0:
                    23:9e:ec:0a:3d:7f:21:c5:8c:68:79:aa:34:e3:cd:
                    69:71:74:e0:6c:56:49:44:6e:fa:90:c8:9e:15:da:
                    f6:6f:34:27:dd:83:bf:23:34:68:21:16:57:00:2d:
                    77:ed:fc:13:5f:9e:52:a4:52:e2:75:c3:d2:61:06:
                    6b:d4:64:da:b3:34:a7:d5:57:fb:77:5b:84:02:3a:
                    20:f3:03:97:52:02:74:8c:97:cc:55:95:a5:e1:ab:
                    26:c0:3d:91:ac:fe:7b:cf:94:8e:a8:be:bb:e5:55:
                    13:88:7e:b9:64:9a:28:4a:c2:cc:b5:f2:1b:00:74:
                    5f:d8:29:fb:92:45:88:25:50:44:69:0b:aa:dc:56:
                    e4:23
                Exponent: 65537 (0x10001)
        X509v3 extensions:
            X509v3 Basic Constraints: critical
                CA:TRUE
            X509v3 Key Usage: critical
                Certificate Sign
            X509v3 Certificate Policies: 
                Policy: 2.16.840.1.114569.1.1.3

            X509v3 Authority Key Identifier: 
                keyid:81:73:91:51:38:17:C4:E2:FF:BD:74:0A:8B:9E:54:5E:F3:ED:CA:01

            X509v3 Subject Key Identifier: 
                9E:49:E9:33:07:C7:9C:DD:9B:B4:66:80:1F:96:07:8C:9F:B8:79:BE
            X509v3 CRL Distribution Points: 

                Full Name:
                  URI:http://crls.pki.goog/gts1c3/QOvJ0N1sT2A.crl

    Signature Algorithm: sha256WithRSAEncryption
         70:3e:06:21:ee:80:83:1b:d1:51:19:4d:bd:7a:ca:57:80:07:
         fc:2e:52:4a:42:7e:fc:79:60:95:a2:5d:3f:ef:57:b6:da:66:
         3b:68:0a:a6:f8:41:1c:d4:9c:9e:b8:6d:eb:2e:fe:9d:93:88:
         20:f4:a7:19:95:2a:8b:76:7a:a9:0f:9e:e8:54:81:02:c6:9e:
         12:d3:d3:c1:db:e3:1c:47:a3:f8:22:3e:28:60:c6:fe:12:2b:
         e3:59:c3:f2:4d:87:d4:89:83:91:2c:17:af:d8:4f:f0:ea:a8:
         61:ef:29:d4:51:8e:c3:76:5a:b8:61:3c:3e:3e:22:a4:9f:e2:
         bd:bb:01:74:3a:0d:27:78:ac:61:2f:b3:75:b9:a8:a9:38:66:
         f7:37:0e:ab:20:cb:09:6c:4f:69:6d:57:92:f5:e4:6e:e6:b2:
         ce:76:4a:2f:f4:a2:6a:e9:c8:6c:75:93:7e:b9:0e:0a:49:c0:
         94:5f:46:32:ad:45:11:03:30:cb:30:31:4e:09:da:cc:58:4f:
         db:3f:82:9d:65:ae:3c:a7:74:72:91:a3:83:ad:01:02:e9:d3:
         69:e7:d8:71:5a:36:87:6b:fc:c8:b3:70:7e:87:0e:34:61:be:
         72:df:b1:fc:38:34:c5:20:4a:b6:cb:fc:21:8b:2f:24:0c:eb:
         c8:48:64:bd
-----BEGIN CERTIFICATE-----
MIIDtDCCApygAwIBAgIKNUD+dVbyV1nw6jANBgkqhkiG9w0BAQsFADA2MRQwEgYD
VQQDEwtTSEFLRU4gUm9vdDERMA8GA1UEChMIU29tZSBvcmcxCzAJBgNVBAYTAlVT
MB4XDTIyMTAyNTE2NTc1NFoXDTIyMTAyNjE2NTc1NFowPjEcMBoGA1UEAxMTU0hB
S0VOIEludGVybWVkaWF0ZTERMA8GA1UEChMIU29tZSBvcmcxCzAJBgNVBAYTAlVT
MIIBIjANBgkqhkiG9w0BAQEFAAOCAQ8AMIIBCgKCAQEA1whCaVRmB8UUvgYCZ/7A
BrExEEpuC4eSJMv31Np/gQyGr6EkSNC/n3mGK6L/+Nbu0xNrDeAGXGiRmPG/bmp0
LzUo5lyWDMUfOkz7/PmYYal9j9c3FtjT9oJhVmaAykRwAqftruUnwhIQhHu6GdQw
lWJ/S+A/9eAjnuwKPX8hxYxoeao0481pcXTgbFZJRG76kMieFdr2bzQn3YO/IzRo
IRZXAC137fwTX55SpFLidcPSYQZr1GTaszSn1Vf7d1uEAjog8wOXUgJ0jJfMVZWl
4asmwD2RrP57z5SOqL675VUTiH65ZJooSsLMtfIbAHRf2Cn7kkWIJVBEaQuq3Fbk
IwIDAQABo4G7MIG4MA8GA1UdEwEB/wQFMAMBAf8wDgYDVR0PAQH/BAQDAgIEMBcG
A1UdIAQQMA4wDAYKYIZIAYb/CQEBAzAfBgNVHSMEGDAWgBSBc5FROBfE4v+9dAqL
nlRe8+3KATAdBgNVHQ4EFgQUnknpMwfHnN2btGaAH5YHjJ+4eb4wPAYDVR0fBDUw
MzAxoC+gLYYraHR0cDovL2NybHMucGtpLmdvb2cvZ3RzMWMzL1FPdkowTjFzVDJB
LmNybDANBgkqhkiG9w0BAQsFAAOCAQEAcD4GIe6AgxvRURlNvXrKV4AH/C5SSkJ+
/HlglaJdP+9XttpmO2gKpvhBHNScnrht6y7+nZOIIPSnGZUqi3Z6qQ+e6FSBAsae
EtPTwdvjHEej+CI+KGDG/hIr41nD8k2H1ImDkSwXr9hP8OqoYe8p1FGOw3ZauGE8
Pj4ipJ/ivbsBdDoNJ3isYS+zdbmoqThm9zcOqyDLCWxPaW1XkvXkbuayznZKL/Si
aunIbHWTfrkOCknAlF9GMq1FEQMwyzAxTgnazFhP2z+CnWWuPKd0cpGjg60BAunT
aefYcVo2h2v8yLNwfocONGG+ct+x/Dg0xSBKtsv8IYsvJAzryEhkvQ==
-----END CERTIFICATE-----
