Certificate:
    Data:
        Version: 3 (0x2)
        Serial Number:
            46:2b:49:ac:31:bc:5d:93:14:9c
    Signature Algorithm: ecdsa-with-SHA256
        Issuer: CN=SHAKEN Root, O=Some org, C=US
        Validity
            Not Before: Oct 25 16:15:34 2022 GMT
            Not After : Oct 26 16:15:34 2022 GMT
        Subject: CN=SHAKEN Intermediate, O=Some org, C=US
        Subject Public Key Info:
            Public Key Algorithm: id-ecPublicKey
                Public-Key: (256 bit)
                pub: 
                    04:c1:ae:7c:0e:f9:46:1a:13:0f:90:1b:56:41:46:
                    08:de:ca:1f:59:14:bb:28:83:50:ad:62:4a:0f:92:
                    8a:bc:18:4e:4f:1c:cb:9e:a6:7f:ba:6d:1d:70:18:
                    44:57:3a:b1:e2:5e:ac:8a:34:66:66:a0:2d:4f:b5:
                    ba:76:fe:62:db
                ASN1 OID: prime256v1
                NIST CURVE: P-256
        X509v3 extensions:
            X509v3 Basic Constraints: critical
                CA:TRUE
            X509v3 Key Usage: critical
                Digital Signature, Certificate Sign
            X509v3 Certificate Policies: 
                Policy: 2.16.840.1.114569.1.1.3

            X509v3 Authority Key Identifier: 
                keyid:C4:B2:85:A5:F5:7F:2B:C0:0F:38:90:8B:92:38:13:C7:89:F7:35:B1

            X509v3 Subject Key Identifier: 
                14:2C:CD:73:F6:84:B3:6C:18:C8:F4:21:51:63:C9:EF:91:A8:19:D3
            X509v3 CRL Distribution Points: 

                Full Name:
                  URI:http://crls.pki.goog/gts1c3/QOvJ0N1sT2A.crl

    Signature Algorithm: ecdsa-with-SHA256
         30:45:02:21:00:f1:cb:f5:05:e6:b3:b2:b3:36:18:5c:9a:ae:
         53:ef:2a:a5:58:b8:c0:97:47:65:12:79:03:46:31:e0:d3:b9:
         19:02:20:58:c0:21:cc:2c:1d:a4:14:12:4e:45:11:3d:11:0a:
         a6:6f:cb:36:ae:f0:de:88:02:f2:a5:dc:96:83:20:ee:e2
-----BEGIN CERTIFICATE-----
MIICKDCCAc6gAwIBAgIKRitJrDG8XZMUnDAKBggqhkjOPQQDAjA2MRQwEgYDVQQD
EwtTSEFLRU4gUm9vdDERMA8GA1UEChMIU29tZSBvcmcxCzAJBgNVBAYTAlVTMB4X
DTIyMTAyNTE2MTUzNFoXDTIyMTAyNjE2MTUzNFowPjEcMBoGA1UEAxMTU0hBS0VO
IEludGVybWVkaWF0ZTERMA8GA1UEChMIU29tZSBvcmcxCzAJBgNVBAYTAlVTMFkw
EwYHKoZIzj0CAQYIKoZIzj0DAQcDQgAEwa58DvlGGhMPkBtWQUYI3sofWRS7KINQ
rWJKD5KKvBhOTxzLnqZ/um0dcBhEVzqx4l6sijRmZqAtT7W6dv5i26OBuzCBuDAP
BgNVHRMBAf8EBTADAQH/MA4GA1UdDwEB/wQEAwIChDAXBgNVHSAEEDAOMAwGCmCG
SAGG/wkBAQMwHwYDVR0jBBgwFoAUxLKFpfV/K8APOJCLkjgTx4n3NbEwHQYDVR0O
BBYEFBQszXP2hLNsGMj0IVFjye+RqBnTMDwGA1UdHwQ1MDMwMaAvoC2GK2h0dHA6
Ly9jcmxzLnBraS5nb29nL2d0czFjMy9RT3ZKME4xc1QyQS5jcmwwCgYIKoZIzj0E
AwIDSAAwRQIhAPHL9QXms7KzNhhcmq5T7yqlWLjAl0dlEnkDRjHg07kZAiBYwCHM
LB2kFBJORRE9EQqmb8s2rvDeiALypdyWgyDu4g==
-----END CERTIFICATE-----
