Certificate:
    Data:
        Version: 3 (0x2)
        Serial Number:
            66:07:24:88:04:aa:67:fa:32:28
    Signature Algorithm: ecdsa-with-SHA256
        Issuer: CN=SHAKEN Root, O=Some org, C=US
        Validity
            Not Before: Oct 24 21:44:30 2022 GMT
            Not After : Oct 25 21:44:30 2022 GMT
        Subject: CN=SHAKEN Root, O=Some org, C=US
        Subject Public Key Info:
            Public Key Algorithm: id-ecPublicKey
                Public-Key: (256 bit)
                pub: 
                    04:26:54:6e:1f:ee:61:d2:0e:cc:27:1b:4d:ab:06:
                    7b:06:e8:40:62:52:70:77:fe:2e:ea:fa:9f:68:6e:
                    aa:ae:00:86:6c:93:13:58:01:80:86:ba:d7:70:44:
                    e6:ea:5b:86:b8:4c:c6:dc:0c:d2:01:37:a8:cc:c8:
                    b6:fd:f4:9c:10
                ASN1 OID: prime256v1
                NIST CURVE: P-256
        X509v3 extensions:
            X509v3 Basic Constraints: critical
                CA:TRUE
            X509v3 Key Usage: critical
                Certificate Sign
            X509v3 Authority Key Identifier: 
                keyid:0B:84:8F:6B:42:FA:EA:82:BB:EE:81:D6:85:47:FC:64:99:65:9B:3B

            X509v3 Subject Key Identifier: 
                31:98:07:26:BF:B2:1A:F4:99:FB:8F:38:AC:0F:9F:3F:EA:D9:B1:95
    Signature Algorithm: ecdsa-with-SHA256
         30:45:02:21:00:d2:eb:19:71:83:9c:f5:fc:9e:40:34:58:11:
         9c:49:52:9f:2a:77:a9:14:81:d4:b4:2b:cd:34:6a:ea:3f:b6:
         ae:02:20:07:9a:b5:b6:7d:be:1e:c9:71:47:1a:de:73:c8:c1:
         fd:7c:91:dc:f3:14:e9:51:e6:d6:72:cc:98:27:5a:31:f2
-----BEGIN CERTIFICATE-----
MIIBxzCCAW2gAwIBAgIKZgckiASqZ/oyKDAKBggqhkjOPQQDAjA2MRQwEgYDVQQD
EwtTSEFLRU4gUm9vdDERMA8GA1UEChMIU29tZSBvcmcxCzAJBgNVBAYTAlVTMB4X
DTIyMTAyNDIxNDQzMFoXDTIyMTAyNTIxNDQzMFowNjEUMBIGA1UEAxMLU0hBS0VO
IFJvb3QxETAPBgNVBAoTCFNvbWUgb3JnMQswCQYDVQQGEwJVUzBZMBMGByqGSM49
AgEGCCqGSM49AwEHA0IABCZUbh/uYdIOzCcbTasGewboQGJScHf+Lur6n2huqq4A
hmyTE1gBgIa613BE5upbhrhMxtwM0gE3qMzItv30nBCjYzBhMA8GA1UdEwEB/wQF
MAMBAf8wDgYDVR0PAQH/BAQDAgIEMB8GA1UdIwQYMBaAFAuEj2tC+uqCu+6B1oVH
/GSZZZs7MB0GA1UdDgQWBBQxmAcmv7Ia9Jn7jzisD58/6tmxlTAKBggqhkjOPQQD
AgNIADBFAiEA0usZcYOc9fyeQDRYEZxJUp8qd6kUgdS0K800auo/tq4CIAeatbZ9
vh7JcUca3nPIwf18kdzzFOlR5tZyzJgnWjHy
-----END CERTIFICATE-----
