Certificate:
    Data:
        Version: 3 (0x2)
        Serial Number:
            88:9e:ac:dd:6d:46:e5:be:9b:e6
    Signature Algorithm: ecdsa-with-SHA256
        Issuer: CN=SHAKEN Root, O=Some org, C=US
        Validity
            Not Before: Oct 24 21:42:47 2022 GMT
            Not After : Oct 25 21:42:47 2022 GMT
        Subject: CN=SHAKEN Root, O=Some org, C=US
        Subject Public Key Info:
            Public Key Algorithm: id-ecPublicKey
                Public-Key: (256 bit)
                pub: 
                    04:93:41:e1:d0:ce:8b:32:f1:77:16:47:cf:8f:0b:
                    48:36:84:90:ca:7b:fb:2f:ab:6d:cb:d8:ac:bb:df:
                    08:85:07:62:09:a7:07:52:23:a5:29:22:aa:1d:ad:
                    08:0a:96:b2:b5:59:aa:9b:5c:65:57:29:15:50:42:
                    c5:8d:37:32:1e
                ASN1 OID: prime256v1
                NIST CURVE: P-256
        X509v3 extensions:
            X509v3 Basic Constraints: critical
                CA:TRUE
            X509v3 Key Usage: critical
                Certificate Sign
            X509v3 Subject Key Identifier: 
                FD:BE:E8:4B:E9:34:37:0D:18:7D:CA:15:B2:61:01:94:59:FC:E2:6D
    Signature Algorithm: ecdsa-with-SHA256
         30:45:02:20:7c:d2:25:5d:93:82:90:aa:63:a5:6e:c7:0b:9a:
         bb:06:04:4a:1c:7b:64:b7:6c:cd:17:fa:d7:b5:4d:d7:04:63:
         02:21:00:8c:65:09:96:a0:c4:c1:9b:e5:24:2c:79:2a:16:18:
         bb:df:2d:30:95:cd:fe:a6:ff:74:ab:14:e8:db:0f:48:7a
-----BEGIN CERTIFICATE-----
MIIBpzCCAU2gAwIBAgILAIierN1tRuW+m+YwCgYIKoZIzj0EAwIwNjEUMBIGA1UE
AxMLU0hBS0VOIFJvb3QxETAPBgNVBAoTCFNvbWUgb3JnMQswCQYDVQQGEwJVUzAe
Fw0yMjEwMjQyMTQyNDdaFw0yMjEwMjUyMTQyNDdaMDYxFDASBgNVBAMTC1NIQUtF
TiBSb290MREwDwYDVQQKEwhTb21lIG9yZzELMAkGA1UEBhMCVVMwWTATBgcqhkjO
PQIBBggqhkjOPQMBBwNCAASTQeHQzosy8XcWR8+PC0g2hJDKe/svq23L2Ky73wiF
B2IJpwdSI6UpIqodrQgKlrK1WaqbXGVXKRVQQsWNNzIeo0IwQDAPBgNVHRMBAf8E
BTADAQH/MA4GA1UdDwEB/wQEAwICBDAdBgNVHQ4EFgQU/b7oS+k0Nw0YfcoVsmEB
lFn84m0wCgYIKoZIzj0EAwIDSAAwRQIgfNIlXZOCkKpjpW7HC5q7BgRKHHtkt2zN
F/rXtU3XBGMCIQCMZQmWoMTBm+UkLHkqFhi73y0wlc3+pv90qxTo2w9Ieg==
-----END CERTIFICATE-----
