Certificate:
    Data:
        Version: 3 (0x2)
        Serial Number:
            77:6f:ad:45:2f:77:e5:91:15:f0
    Signature Algorithm: ecdsa-with-SHA256
        Issuer: CN=SHAKEN Intermediate, O=Some org, C=US
        Validity
            Not Before: Oct 24 19:47:43 2022 GMT
            Not After : Oct 25 19:47:43 2022 GMT
        Subject: CN=SHAKEN 6628, O=Some org, C=US/serialNumber=12345
        Subject Public Key Info:
            Public Key Algorithm: id-ecPublicKey
                Public-Key: (256 bit)
                pub: 
                    04:55:3d:28:f2:ea:29:32:4c:92:06:17:0f:1d:e4:
                    3b:da:32:dd:f5:61:32:05:3a:38:a0:04:8c:bb:42:
                    1e:f5:c0:9f:43:51:0d:f2:58:fb:92:8f:33:c7:50:
                    85:ff:6b:47:28:dd:ae:02:2b:d9:fb:70:86:33:9a:
                    bb:dd:e7:f1:d4
                ASN1 OID: prime256v1
                NIST CURVE: P-256
        X509v3 extensions:
            X509v3 Basic Constraints: critical
                CA:FALSE
            X509v3 Key Usage: critical
                Digital Signature
            X509v3 Certificate Policies: 
                Policy: 2.16.840.1.114569.1.1.3

            X509v3 Authority Key Identifier: 
                keyid:B3:48:7A:14:EA:E9:12:15:B7:3E:35:06:35:38:B6:3B:98:7A:35:5E

            X509v3 Subject Key Identifier: 
                A6:D8:1C:B0:A8:74:83:C9:27:1D:0A:CA:1F:CE:24:95:84:35:49:4E
            X509v3 CRL Distribution Points: 

                Full Name:
                  URI:http://crls.pki.goog/gts1c3/QOvJ0N1sT2A.crl

            1.3.6.1.5.5.7.1.26: 
                0.....6628
    Signature Algorithm: ecdsa-with-SHA256
         30:45:02:21:00:c6:97:25:bd:b9:6e:93:ea:2b:db:4f:5a:dd:
         a1:84:c5:13:5a:49:db:4a:b9:48:85:54:27:fd:90:c7:d7:ce:
         6c:02:20:1c:09:ec:7e:5f:24:c0:00:83:5f:b4:42:ef:07:02:
         0e:78:2f:5d:b5:ba:e3:53:6a:b6:65:3b:b1:54:dd:9e:c5
-----BEGIN CERTIFICATE-----
MIICTTCCAfOgAwIBAgIKd2+tRS935ZEV8DAKBggqhkjOPQQDAjA+MRwwGgYDVQQD
ExNTSEFLRU4gSW50ZXJtZWRpYXRlMREwDwYDVQQKEwhTb21lIG9yZzELMAkGA1UE
BhMCVVMwHhcNMjIxMDI0MTk0NzQzWhcNMjIxMDI1MTk0NzQzWjBGMRQwEgYDVQQD
EwtTSEFLRU4gNjYyODERMA8GA1UEChMIU29tZSBvcmcxCzAJBgNVBAYTAlVTMQ4w
DAYDVQQFEwUxMjM0NTBZMBMGByqGSM49AgEGCCqGSM49AwEHA0IABFU9KPLqKTJM
kgYXDx3kO9oy3fVhMgU6OKAEjLtCHvXAn0NRDfJY+5KPM8dQhf9rRyjdrgIr2ftw
hjOau93n8dSjgdAwgc0wDAYDVR0TAQH/BAIwADAOBgNVHQ8BAf8EBAMCB4AwFwYD
VR0gBBAwDjAMBgpghkgBhv8JAQEDMB8GA1UdIwQYMBaAFLNIehTq6RIVtz41BjU4
tjuYejVeMB0GA1UdDgQWBBSm2BywqHSDyScdCsofziSVhDVJTjA8BgNVHR8ENTAz
MDGgL6AthitodHRwOi8vY3Jscy5wa2kuZ29vZy9ndHMxYzMvUU92SjBOMXNUMkEu
Y3JsMBYGCCsGAQUFBwEaBAowCKAGFgQ2NjI4MAoGCCqGSM49BAMCA0gAMEUCIQDG
lyW9uW6T6ivbT1rdoYTFE1pJ20q5SIVUJ/2Qx9fObAIgHAnsfl8kwACDX7RC7wcC
DngvXbW641NqtmU7sVTdnsU=
-----END CERTIFICATE-----
