Certificate:
    Data:
        Version: 3 (0x2)
        Serial Number:
            50:f9:d2:65:cd:be:6b:71:8c:42
    Signature Algorithm: ecdsa-with-SHA256
        Issuer: CN=SHAKEN Intermediate, O=Some org, C=US
        Validity
            Not Before: Oct 24 18:06:43 2022 GMT
            Not After : Oct 25 18:06:43 2022 GMT
        Subject: CN=SHAKEN 6628, O=Some org, C=US/serialNumber=12345
        Subject Public Key Info:
            Public Key Algorithm: id-ecPublicKey
                Public-Key: (256 bit)
                pub: 
                    04:68:1b:01:7c:6b:79:f6:01:47:25:ad:cb:57:2a:
                    78:55:db:f7:f9:54:ba:41:34:2f:ef:71:db:ec:5c:
                    fd:cc:c8:a3:7f:52:ef:6e:9e:94:0e:a2:f8:2d:72:
                    6b:b0:38:41:84:71:5e:09:4c:1e:78:e0:d7:25:40:
                    29:1e:4a:be:6c
                ASN1 OID: prime256v1
                NIST CURVE: P-256
        X509v3 extensions:
            X509v3 Key Usage: 
                Digital Signature, Certificate Sign
            X509v3 Authority Key Identifier: 
                keyid:D0:8E:AC:FB:01:C3:E3:33:97:10:DF:3C:D0:1E:13:95:F0:B7:48:7A

            1.3.6.1.5.5.7.1.26: 
                0.....6628
    Signature Algorithm: ecdsa-with-SHA256
         30:45:02:20:61:43:2f:f9:da:99:61:38:91:e2:95:25:9f:2e:
         13:30:fc:2f:00:63:89:0f:49:fd:4b:cd:27:47:bd:0f:1d:36:
         02:21:00:af:4c:ee:55:0f:82:4d:3a:64:02:ee:32:1e:30:2f:
         61:80:0e:88:c1:2f:f1:20:83:30:03:05:19:3c:ef:da:d9
-----BEGIN CERTIFICATE-----
MIIBxDCCAWqgAwIBAgIKUPnSZc2+a3GMQjAKBggqhkjOPQQDAjA+MRwwGgYDVQQD
ExNTSEFLRU4gSW50ZXJtZWRpYXRlMREwDwYDVQQKEwhTb21lIG9yZzELMAkGA1UE
BhMCVVMwHhcNMjIxMDI0MTgwNjQzWhcNMjIxMDI1MTgwNjQzWjBGMRQwEgYDVQQD
EwtTSEFLRU4gNjYyODERMA8GA1UEChMIU29tZSBvcmcxCzAJBgNVBAYTAlVTMQ4w
DAYDVQQFEwUxMjM0NTBZMBMGByqGSM49AgEGCCqGSM49AwEHA0IABGgbAXxrefYB
RyWty1cqeFXb9/lUukE0L+9x2+xc/czIo39S726elA6i+C1ya7A4QYRxXglMHnjg
1yVAKR5KvmyjSDBGMAsGA1UdDwQEAwIChDAfBgNVHSMEGDAWgBTQjqz7AcPjM5cQ
3zzQHhOV8LdIejAWBggrBgEFBQcBGgQKMAigBhYENjYyODAKBggqhkjOPQQDAgNI
ADBFAiBhQy/52plhOJHilSWfLhMw/C8AY4kPSf1LzSdHvQ8dNgIhAK9M7lUPgk06
ZALuMh4wL2GADojBL/EggzADBRk879rZ
-----END CERTIFICATE-----
