Certificate:
    Data:
        Version: 3 (0x2)
        Serial Number:
            25:45:8b:98:8f:74:98:92:4c:55
    Signature Algorithm: ecdsa-with-SHA256
        Issuer: CN=SHAKEN Root
        Validity
            Not Before: Oct 24 14:29:57 2022 GMT
            Not After : Oct 25 14:29:57 2022 GMT
        Subject: CN=SHAKEN Intermediate, O=Some org, C=US
        Subject Public Key Info:
            Public Key Algorithm: id-ecPublicKey
                Public-Key: (256 bit)
                pub: 
                    04:94:78:01:c5:71:b7:f9:d2:8d:0b:e2:63:3f:aa:
                    31:ed:86:66:70:08:4f:46:32:72:a5:d4:ab:85:1d:
                    08:b2:80:9f:84:d5:5e:14:08:30:d1:14:ac:4c:b8:
                    b1:82:73:2f:40:d0:88:30:19:72:c7:60:e0:ce:bc:
                    17:36:87:65:b2
                ASN1 OID: prime256v1
                NIST CURVE: P-256
        X509v3 extensions:
            X509v3 Basic Constraints: critical
                CA:TRUE
    Signature Algorithm: ecdsa-with-SHA256
         30:44:02:20:2c:f3:c5:af:87:45:21:62:dd:d0:80:e1:b4:20:
         99:50:ea:15:ab:43:37:a9:6b:cc:2f:28:fe:50:13:8d:50:b6:
         02:20:16:00:e2:c1:29:9d:36:9d:68:9b:32:9b:b0:d2:9a:4b:
         29:12:6c:e1:3c:c7:47:46:f7:0e:5b:14:d9:14:6b:4e
-----BEGIN CERTIFICATE-----
MIIBXjCCAQWgAwIBAgIKJUWLmI90mJJMVTAKBggqhkjOPQQDAjAWMRQwEgYDVQQD
EwtTSEFLRU4gUm9vdDAeFw0yMjEwMjQxNDI5NTdaFw0yMjEwMjUxNDI5NTdaMD4x
HDAaBgNVBAMTE1NIQUtFTiBJbnRlcm1lZGlhdGUxETAPBgNVBAoTCFNvbWUgb3Jn
MQswCQYDVQQGEwJVUzBZMBMGByqGSM49AgEGCCqGSM49AwEHA0IABJR4AcVxt/nS
jQviYz+qMe2GZnAIT0YycqXUq4UdCLKAn4TVXhQIMNEUrEy4sYJzL0DQiDAZcsdg
4M68FzaHZbKjEzARMA8GA1UdEwEB/wQFMAMBAf8wCgYIKoZIzj0EAwIDRwAwRAIg
LPPFr4dFIWLd0IDhtCCZUOoVq0M3qWvMLyj+UBONULYCIBYA4sEpnTadaJsym7DS
mkspEmzhPMdHRvcOWxTZFGtO
-----END CERTIFICATE-----
