Certificate:
    Data:
        Version: 3 (0x2)
        Serial Number:
            09:36:26:b7:57:1c:d8:d2:e0:21
    Signature Algorithm: sha256WithRSAEncryption
        Issuer: CN=SHAKEN Intermediate, O=Some org, C=US
        Validity
            Not Before: Oct 24 20:23:37 2022 GMT
            Not After : Oct 25 20:23:37 2022 GMT
        Subject: CN=SHAKEN 6628, O=Some org, C=US/serialNumber=12345
        Subject Public Key Info:
            Public Key Algorithm: rsaEncryption
                Public-Key: (2048 bit)
                Modulus:
                    00:b8:1d:a3:d9:98:2b:54:ca:bb:3d:fa:36:b0:88:
                    38:57:c1:52:1c:63:1b:fe:f7:8e:5e:e0:77:1d:1d:
                    75:f3:87:f0:6d:57:82:e2:25:17:7f:47:32:a0:b2:
                    fd:b2:3c:f1:82:15:87:f5:8c:5c:e6:27:77:fb:f6:
                    84:74:72:8d:22:83:26:5b:06:94:6a:fa:8d:01:56:
                    ae:2e:26:94:a5:d5:c8:ae:ca:a8:4d:73:e4:64:34:
                    e1:d7:a2:d5:04:5f:fd:e7:c0:d4:df:f1:40:4f:3a:
                    38:2d:75:05:42:5b:88:68:90:5a:bb:6f:50:2f:1a:
                    22:ea:2e:af:e3:de:f4:08:70:f6:a6:6a:ac:7e:9e:
                    25:97:9b:6e:43:8d:36:67:7f:b6:37:4b:c0:04:b1:
                    84:1b:03:f2:ad:57:dc:bd:b8:83:2c:9f:ff:2d:b9:
                    cc:0f:9a:83:c0:dc:ec:38:8a:60:69:29:af:05:89:
                    75:23:55:b8:63:a7:7b:d3:41:72:d3:07:08:95:e7:
                    32:73:3e:32:62:f1:4d:df:29:ca:8c:3a:5e:ca:3f:
                    bc:2f:0c:0b:36:e0:7d:83:91:ef:71:bb:d4:43:6d:
                    6f:41:df:de:72:d6:f0:c8:18:fa:f3:66:bd:91:4b:
                    d0:2a:20:34:2c:07:fc:04:f7:23:8a:f7:cd:4e:56:
                    a6:53
                Exponent: 65537 (0x10001)
        X509v3 extensions:
            X509v3 Basic Constraints: critical
                CA:FALSE
            X509v3 Key Usage: critical
                Digital Signature, Data Encipherment
            X509v3 Certificate Policies: 
                Policy: 2.16.840.1.114569.1.1.3

            X509v3 Authority Key Identifier: 
                keyid:54:1C:65:AC:7E:92:7A:8C:CD:2A:F0:47:B3:F1:D1:7F:7B:F6:D7:FB

            X509v3 Subject Key Identifier: 
                93:B8:09:8C:7C:7D:96:5D:9D:E7:01:95:C6:70:30:99:13:B4:EA:89
            X509v3 CRL Distribution Points: 

                Full Name:
                  URI:http://crls.pki.goog/gts1c3/QOvJ0N1sT2A.crl

            1.3.6.1.5.5.7.1.26: 
                0.....6629
    Signature Algorithm: sha256WithRSAEncryption
         69:12:7c:8a:c5:19:62:9c:de:48:8f:7e:f3:55:09:e1:87:12:
         d8:06:d8:45:ad:8b:90:ec:03:7f:93:c3:0e:83:0f:80:c7:6b:
         e7:1f:6c:52:e5:57:a3:7a:cc:8a:19:0a:00:a1:67:b8:17:70:
         bb:bc:2c:3a:a1:a7:61:20:96:f7:57:46:bc:f7:52:37:33:42:
         92:23:30:53:57:e6:4a:3a:3d:22:54:ce:6b:f9:c7:4e:11:e7:
         62:e2:0d:0c:7b:6f:b6:a5:c2:3e:9a:dd:2d:02:00:09:94:98:
         3b:c1:24:b1:c9:aa:29:94:64:12:af:ba:55:50:b2:f9:87:01:
         bb:13:c4:87:be:c5:af:6d:11:3d:73:b7:2e:4f:4e:ee:23:64:
         c5:7c:c0:56:94:ec:c4:36:88:e5:2f:cb:07:9b:32:16:e6:5f:
         e9:e2:a5:37:3e:f7:08:a8:de:75:42:a1:37:dc:a3:9a:a0:45:
         41:b8:f0:93:57:c0:e3:4c:17:0e:dc:83:30:aa:24:2e:a1:af:
         9f:f6:be:96:f9:f7:52:17:42:71:49:90:83:71:3a:d7:77:36:
         b9:77:61:44:4b:cb:50:c8:b8:bf:0e:3d:09:b4:42:c0:02:d5:
         e2:d4:a8:42:2e:07:8e:2c:fc:b9:eb:61:a2:5b:5c:56:c8:45:
         a5:1c:8c:ef
-----BEGIN CERTIFICATE-----
MIID2TCCAsGgAwIBAgIKCTYmt1cc2NLgITANBgkqhkiG9w0BAQsFADA+MRwwGgYD
VQQDExNTSEFLRU4gSW50ZXJtZWRpYXRlMREwDwYDVQQKEwhTb21lIG9yZzELMAkG
A1UEBhMCVVMwHhcNMjIxMDI0MjAyMzM3WhcNMjIxMDI1MjAyMzM3WjBGMRQwEgYD
VQQDEwtTSEFLRU4gNjYyODERMA8GA1UEChMIU29tZSBvcmcxCzAJBgNVBAYTAlVT
MQ4wDAYDVQQFEwUxMjM0NTCCASIwDQYJKoZIhvcNAQEBBQADggEPADCCAQoCggEB
ALgdo9mYK1TKuz36NrCIOFfBUhxjG/73jl7gdx0ddfOH8G1XguIlF39HMqCy/bI8
8YIVh/WMXOYnd/v2hHRyjSKDJlsGlGr6jQFWri4mlKXVyK7KqE1z5GQ04dei1QRf
/efA1N/xQE86OC11BUJbiGiQWrtvUC8aIuour+Pe9Ahw9qZqrH6eJZebbkONNmd/
tjdLwASxhBsD8q1X3L24gyyf/y25zA+ag8Dc7DiKYGkprwWJdSNVuGOne9NBctMH
CJXnMnM+MmLxTd8pyow6Xso/vC8MCzbgfYOR73G71ENtb0Hf3nLW8MgY+vNmvZFL
0CogNCwH/AT3I4r3zU5WplMCAwEAAaOB0DCBzTAMBgNVHRMBAf8EAjAAMA4GA1Ud
DwEB/wQEAwIEkDAXBgNVHSAEEDAOMAwGCmCGSAGG/wkBAQMwHwYDVR0jBBgwFoAU
VBxlrH6SeozNKvBHs/HRf3v21/swHQYDVR0OBBYEFJO4CYx8fZZdnecBlcZwMJkT
tOqJMDwGA1UdHwQ1MDMwMaAvoC2GK2h0dHA6Ly9jcmxzLnBraS5nb29nL2d0czFj
My9RT3ZKME4xc1QyQS5jcmwwFgYIKwYBBQUHARoECjAIoAYWBDY2MjkwDQYJKoZI
hvcNAQELBQADggEBAGkSfIrFGWKc3kiPfvNVCeGHEtgG2EWti5DsA3+Tww6DD4DH
a+cfbFLlV6N6zIoZCgChZ7gXcLu8LDqhp2EglvdXRrz3UjczQpIjMFNX5ko6PSJU
zmv5x04R52LiDQx7b7alwj6a3S0CAAmUmDvBJLHJqimUZBKvulVQsvmHAbsTxIe+
xa9tET1zty5PTu4jZMV8wFaU7MQ2iOUvywebMhbmX+nipTc+9wio3nVCoTfco5qg
RUG48JNXwONMFw7cgzCqJC6hr5/2vpb591IXQnFJkINxOtd3Nrl3YURLy1DIuL8O
PQm0QsAC1eLUqEIuB44s/LnrYaJbXFbIRaUcjO8=
-----END CERTIFICATE-----
