Certificate:
    Data:
        Version: 3 (0x2)
        Serial Number:
            1a:2e:91:2a:f2:7b:43:a6:09:3d
    Signature Algorithm: ecdsa-with-SHA256
        Issuer: CN=SHAKEN Root, O=Some org, C=US
        Validity
            Not Before: Oct 25 15:59:43 2022 GMT
            Not After : Oct 26 15:59:43 2022 GMT
        Subject: CN=SHAKEN Intermediate, O=Some org, C=US
        Subject Public Key Info:
            Public Key Algorithm: id-ecPublicKey
                Public-Key: (256 bit)
                pub: 
                    04:11:bd:e6:d1:dc:e2:db:3c:f6:32:16:f0:20:7c:
                    70:ac:12:2c:16:bb:47:ba:8d:da:c8:61:b8:4c:2d:
                    a6:d0:b1:47:87:7d:89:63:31:d5:42:53:c7:79:1e:
                    e0:bc:0a:f9:45:7e:88:2b:9b:7a:f2:8f:c4:e2:87:
                    c2:93:41:c5:90
                ASN1 OID: prime256v1
                NIST CURVE: P-256
        X509v3 extensions:
            X509v3 Basic Constraints: critical
                CA:TRUE
            X509v3 Key Usage: critical
                Digital Signature, Data Encipherment, Certificate Sign, CRL Sign
            X509v3 Certificate Policies: 
                Policy: 2.16.840.1.114569.1.1.3

            X509v3 Authority Key Identifier: 
                keyid:F8:26:35:A7:56:E2:44:70:14:C2:6B:FA:B1:6D:AF:F6:D4:F6:1C:3D

            X509v3 Subject Key Identifier: 
                AA:7D:B2:D3:AC:18:6A:03:EF:7D:92:1B:5C:06:CF:21:B1:BC:7C:BA
            X509v3 CRL Distribution Points: 

                Full Name:
                  URI:http://crls.pki.goog/gts1c3/QOvJ0N1sT2A.crl

    Signature Algorithm: ecdsa-with-SHA256
         30:45:02:20:4f:9b:b3:fc:a2:5c:63:5d:39:a1:75:1c:fc:2d:
         f4:b3:8d:55:80:2b:e7:17:03:d8:2a:5e:ab:71:6c:bd:b7:e8:
         02:21:00:b2:d5:ff:de:9b:e8:ba:00:f7:50:a0:35:e8:50:11:
         52:37:0a:c1:82:40:9c:9d:b8:25:d3:a0:f0:55:44:8d:45
-----BEGIN CERTIFICATE-----
MIICKDCCAc6gAwIBAgIKGi6RKvJ7Q6YJPTAKBggqhkjOPQQDAjA2MRQwEgYDVQQD
EwtTSEFLRU4gUm9vdDERMA8GA1UEChMIU29tZSBvcmcxCzAJBgNVBAYTAlVTMB4X
DTIyMTAyNTE1NTk0M1oXDTIyMTAyNjE1NTk0M1owPjEcMBoGA1UEAxMTU0hBS0VO
IEludGVybWVkaWF0ZTERMA8GA1UEChMIU29tZSBvcmcxCzAJBgNVBAYTAlVTMFkw
EwYHKoZIzj0CAQYIKoZIzj0DAQcDQgAEEb3m0dzi2zz2MhbwIHxwrBIsFrtHuo3a
yGG4TC2m0LFHh32JYzHVQlPHeR7gvAr5RX6IK5t68o/E4ofCk0HFkKOBuzCBuDAP
BgNVHRMBAf8EBTADAQH/MA4GA1UdDwEB/wQEAwIBljAXBgNVHSAEEDAOMAwGCmCG
SAGG/wkBAQMwHwYDVR0jBBgwFoAU+CY1p1biRHAUwmv6sW2v9tT2HD0wHQYDVR0O
BBYEFKp9stOsGGoD732SG1wGzyGxvHy6MDwGA1UdHwQ1MDMwMaAvoC2GK2h0dHA6
Ly9jcmxzLnBraS5nb29nL2d0czFjMy9RT3ZKME4xc1QyQS5jcmwwCgYIKoZIzj0E
AwIDSAAwRQIgT5uz/KJcY105oXUc/C30s41VgCvnFwPYKl6rcWy9t+gCIQCy1f/e
m+i6APdQoDXoUBFSNwrBgkCcnbgl06DwVUSNRQ==
-----END CERTIFICATE-----
