Certificate:
    Data:
        Version: 3 (0x2)
        Serial Number:
            a3:3d:e4:af:04:91:0d:2a:2f:88
    Signature Algorithm: ecdsa-with-SHA256
        Issuer: CN=SHAKEN Intermediate
        Validity
            Not Before: Oct 24 14:47:26 2022 GMT
            Not After : Oct 25 14:47:26 2022 GMT
        Subject: CN=SHAKEN 6628, O=Some org, C=US/serialNumber=12345
        Subject Public Key Info:
            Public Key Algorithm: id-ecPublicKey
                Public-Key: (256 bit)
                pub: 
                    04:d6:eb:df:75:99:e3:dd:f9:a1:96:c6:75:13:f7:
                    fd:60:c7:e5:8c:b8:09:bf:87:5b:d5:72:64:91:c3:
                    97:1b:d7:73:c6:65:dc:74:cd:9c:d5:17:18:8b:33:
                    77:2b:25:16:65:5f:f6:14:dc:ac:ab:3b:ae:50:34:
                    23:cd:3b:29:df
                ASN1 OID: prime256v1
                NIST CURVE: P-256
        X509v3 extensions:
            X509v3 Basic Constraints: critical
                CA:FALSE
            1.3.6.1.5.5.7.1.26: 
                0.....6628
    Signature Algorithm: ecdsa-with-SHA256
         30:45:02:21:00:ea:99:44:2c:35:cb:b0:97:9f:08:38:46:ca:
         0f:c5:98:c7:f4:c7:dc:55:12:dd:2e:7b:a1:7a:7d:39:9b:34:
         fc:02:20:76:56:34:2e:0f:99:98:87:37:b8:4f:83:16:db:d0:
         1d:e1:ec:74:54:9b:55:29:6a:2b:11:33:99:45:12:5a:83
-----BEGIN CERTIFICATE-----
MIIBhTCCASugAwIBAgILAKM95K8EkQ0qL4gwCgYIKoZIzj0EAwIwHjEcMBoGA1UE
AxMTU0hBS0VOIEludGVybWVkaWF0ZTAeFw0yMjEwMjQxNDQ3MjZaFw0yMjEwMjUx
NDQ3MjZaMEYxFDASBgNVBAMTC1NIQUtFTiA2NjI4MREwDwYDVQQKEwhTb21lIG9y
ZzELMAkGA1UEBhMCVVMxDjAMBgNVBAUTBTEyMzQ1MFkwEwYHKoZIzj0CAQYIKoZI
zj0DAQcDQgAE1uvfdZnj3fmhlsZ1E/f9YMfljLgJv4db1XJkkcOXG9dzxmXcdM2c
1RcYizN3KyUWZV/2FNysqzuuUDQjzTsp36MoMCYwDAYDVR0TAQH/BAIwADAWBggr
BgEFBQcBGgQKMAigBhYENjYyODAKBggqhkjOPQQDAgNIADBFAiEA6plELDXLsJef
CDhGyg/FmMf0x9xVEt0ue6F6fTmbNPwCIHZWNC4PmZiHN7hPgxbb0B3h7HRUm1Up
aisRM5lFElqD
-----END CERTIFICATE-----
