Certificate:
    Data:
        Version: 3 (0x2)
        Serial Number:
            68:20:88:ca:49:26:40:fa:aa:9b
    Signature Algorithm: ecdsa-with-SHA1
        Issuer: CN=SHAKEN Root, O=Some org, C=US
        Validity
            Not Before: Oct 25 16:49:30 2022 GMT
            Not After : Oct 26 16:49:30 2022 GMT
        Subject: CN=SHAKEN Intermediate, O=Some org, C=US
        Subject Public Key Info:
            Public Key Algorithm: id-ecPublicKey
                Public-Key: (256 bit)
                pub: 
                    04:49:b4:59:b7:af:ef:12:99:34:3e:71:dc:cc:3e:
                    04:9d:32:ae:bb:7e:44:f6:0a:48:60:be:37:b2:22:
                    7d:f6:89:91:2e:b1:7c:2b:88:a7:82:a6:68:0c:60:
                    26:1f:e3:6c:a7:a7:4f:12:0a:25:30:7b:aa:4e:53:
                    78:cb:5f:b7:79
                ASN1 OID: prime256v1
                NIST CURVE: P-256
        X509v3 extensions:
            X509v3 Basic Constraints: critical
                CA:TRUE
            X509v3 Key Usage: critical
                Certificate Sign
            X509v3 Certificate Policies: 
                Policy: 2.16.840.1.114569.1.1.3

            X509v3 Authority Key Identifier: 
                keyid:A4:06:6C:B3:2B:8B:29:FF:C6:0A:5E:7D:AB:2F:D7:32:AA:EF:E3:09

            X509v3 Subject Key Identifier: 
                E8:F3:C7:5B:76:C1:47:BB:C2:F3:84:E0:B9:D1:DF:E4:B3:74:EC:44
            X509v3 CRL Distribution Points: 

                Full Name:
                  URI:http://crls.pki.goog/gts1c3/QOvJ0N1sT2A.crl

    Signature Algorithm: ecdsa-with-SHA1
         30:46:02:21:00:a9:77:cb:c9:64:ba:d3:29:29:63:ca:d2:8c:
         50:60:5a:04:c9:03:d2:a6:3e:5a:89:e2:fd:9a:03:1e:31:00:
         0a:02:21:00:83:6b:ec:7a:73:41:a2:a8:b2:0b:86:77:52:87:
         65:e6:ec:17:93:4b:0e:08:ee:b3:17:56:bf:6c:ad:e2:2c:b9
-----BEGIN CERTIFICATE-----
MIICJzCCAc2gAwIBAgIKaCCIykkmQPqqmzAJBgcqhkjOPQQBMDYxFDASBgNVBAMT
C1NIQUtFTiBSb290MREwDwYDVQQKEwhTb21lIG9yZzELMAkGA1UEBhMCVVMwHhcN
MjIxMDI1MTY0OTMwWhcNMjIxMDI2MTY0OTMwWjA+MRwwGgYDVQQDExNTSEFLRU4g
SW50ZXJtZWRpYXRlMREwDwYDVQQKEwhTb21lIG9yZzELMAkGA1UEBhMCVVMwWTAT
BgcqhkjOPQIBBggqhkjOPQMBBwNCAARJtFm3r+8SmTQ+cdzMPgSdMq67fkT2Ckhg
vjeyIn32iZEusXwriKeCpmgMYCYf42ynp08SCiUwe6pOU3jLX7d5o4G7MIG4MA8G
A1UdEwEB/wQFMAMBAf8wDgYDVR0PAQH/BAQDAgIEMBcGA1UdIAQQMA4wDAYKYIZI
AYb/CQEBAzAfBgNVHSMEGDAWgBSkBmyzK4sp/8YKXn2rL9cyqu/jCTAdBgNVHQ4E
FgQU6PPHW3bBR7vC84TgudHf5LN07EQwPAYDVR0fBDUwMzAxoC+gLYYraHR0cDov
L2NybHMucGtpLmdvb2cvZ3RzMWMzL1FPdkowTjFzVDJBLmNybDAJBgcqhkjOPQQB
A0kAMEYCIQCpd8vJZLrTKSljytKMUGBaBMkD0qY+Woni/ZoDHjEACgIhAINr7Hpz
QaKosguGd1KHZebsF5NLDgjusxdWv2yt4iy5
-----END CERTIFICATE-----
