Certificate:
    Data:
        Version: 3 (0x2)
        Serial Number:
            3b:d7:a8:4e:22:e3:37:58:87:ea
    Signature Algorithm: ecdsa-with-SHA256
        Issuer: CN=SHAKEN Intermediate, O=Some org, C=US
        Validity
            Not Before: Oct 24 19:30:24 2022 GMT
            Not After : Oct 25 19:30:24 2022 GMT
        Subject: CN=SHAKEN 6628, O=Some org, C=US/serialNumber=12345
        Subject Public Key Info:
            Public Key Algorithm: id-ecPublicKey
                Public-Key: (256 bit)
                pub: 
                    04:b5:90:06:5e:a7:0b:c2:a3:f4:01:fb:15:40:26:
                    41:58:49:c8:0e:fa:9e:41:a5:1b:cb:47:c2:06:a1:
                    c7:31:23:d3:60:49:88:a6:af:9c:98:a2:6f:ae:4b:
                    87:96:07:32:1d:88:a7:77:79:15:e9:86:3a:6d:e1:
                    0a:2c:23:9f:df
                ASN1 OID: prime256v1
                NIST CURVE: P-256
        X509v3 extensions:
            X509v3 Basic Constraints: critical
                CA:FALSE
            X509v3 Key Usage: 
                Digital Signature
            X509v3 Certificate Policies: 
                Policy: 2.16.840.1.114569.1.1.3

            X509v3 Authority Key Identifier: 
                keyid:9F:EF:65:B5:F8:54:31:0E:29:C2:7F:C9:3D:04:4D:F1:B9:9F:0C:5A

            X509v3 Subject Key Identifier: 
                7F:87:FE:93:40:C6:87:87:57:76:06:06:CF:36:C0:DB:E2:C9:EC:AF
            X509v3 CRL Distribution Points: 

                Full Name:
                  URI:http://crls.pki.goog/gts1c3/QOvJ0N1sT2A.crl

            1.3.6.1.5.5.7.1.26: 
                0.....6628
            X509v3 Extended Key Usage: 
                1.2.3.4.5
    Signature Algorithm: ecdsa-with-SHA256
         30:45:02:20:0a:d7:97:40:dc:8d:84:48:e4:3a:db:9a:10:2c:
         fc:73:ec:37:f8:52:a2:ec:a3:96:ff:a1:e5:b4:59:07:d1:aa:
         02:21:00:80:d3:c3:b8:f6:ea:63:1e:d9:72:91:58:c6:de:1d:
         48:57:62:9d:e3:59:0e:c7:ec:81:a6:fa:ed:fd:11:83:22
-----BEGIN CERTIFICATE-----
MIICWzCCAgGgAwIBAgIKO9eoTiLjN1iH6jAKBggqhkjOPQQDAjA+MRwwGgYDVQQD
ExNTSEFLRU4gSW50ZXJtZWRpYXRlMREwDwYDVQQKEwhTb21lIG9yZzELMAkGA1UE
BhMCVVMwHhcNMjIxMDI0MTkzMDI0WhcNMjIxMDI1MTkzMDI0WjBGMRQwEgYDVQQD
EwtTSEFLRU4gNjYyODERMA8GA1UEChMIU29tZSBvcmcxCzAJBgNVBAYTAlVTMQ4w
DAYDVQQFEwUxMjM0NTBZMBMGByqGSM49AgEGCCqGSM49AwEHA0IABLWQBl6nC8Kj
9AH7FUAmQVhJyA76nkGlG8tHwgahxzEj02BJiKavnJiib65Lh5YHMh2Ip3d5FemG
Om3hCiwjn9+jgd4wgdswDAYDVR0TAQH/BAIwADALBgNVHQ8EBAMCB4AwFwYDVR0g
BBAwDjAMBgpghkgBhv8JAQEDMB8GA1UdIwQYMBaAFJ/vZbX4VDEOKcJ/yT0ETfG5
nwxaMB0GA1UdDgQWBBR/h/6TQMaHh1d2BgbPNsDb4snsrzA8BgNVHR8ENTAzMDGg
L6AthitodHRwOi8vY3Jscy5wa2kuZ29vZy9ndHMxYzMvUU92SjBOMXNUMkEuY3Js
MBYGCCsGAQUFBwEaBAowCKAGFgQ2NjI4MA8GA1UdJQQIMAYGBCoDBAUwCgYIKoZI
zj0EAwIDSAAwRQIgCteXQNyNhEjkOtuaECz8c+w3+FKi7KOW/6HltFkH0aoCIQCA
08O49upjHtlykVjG3h1IV2Kd41kOx+yBpvrt/RGDIg==
-----END CERTIFICATE-----
