Certificate:
    Data:
        Version: 3 (0x2)
        Serial Number:
            e3:9a:7e:d3:df:c8:ce:1e:08:dc
    Signature Algorithm: ecdsa-with-SHA256
        Issuer: O=Some org, C=US
        Validity
            Not Before: Oct 25 15:51:44 2022 GMT
            Not After : Oct 26 15:51:44 2022 GMT
        Subject: CN=SHAKEN Intermediate, O=Some org, C=US
        Subject Public Key Info:
            Public Key Algorithm: id-ecPublicKey
                Public-Key: (256 bit)
                pub: 
                    04:a1:e1:e8:dc:98:4e:8f:ac:92:a2:54:86:29:4a:
                    5a:07:36:66:b8:6e:91:85:a4:a3:81:a8:44:81:9d:
                    a4:a6:07:ca:8b:19:05:41:44:ea:f0:7a:fa:6f:2e:
                    fd:c9:c6:8e:fe:29:ae:72:41:32:ec:6b:d8:e2:01:
                    e8:75:e0:94:55
                ASN1 OID: prime256v1
                NIST CURVE: P-256
        X509v3 extensions:
            X509v3 Basic Constraints: critical
                CA:TRUE
            X509v3 Key Usage: critical
                Certificate Sign
            X509v3 Certificate Policies: 
                Policy: 2.16.840.1.114569.1.1.3

            X509v3 Authority Key Identifier: 
                keyid:0D:E3:6E:81:B4:24:75:8F:B7:CA:44:AF:13:12:BE:2F:FE:ED:B4:4B

            X509v3 Subject Key Identifier: 
                92:F1:31:61:06:21:98:81:96:00:A2:6A:46:41:73:F3:80:D3:9E:8A
            X509v3 CRL Distribution Points: 

                Full Name:
                  URI:http://crls.pki.goog/gts1c3/QOvJ0N1sT2A.crl

    Signature Algorithm: ecdsa-with-SHA256
         30:46:02:21:00:c0:a8:43:c0:8a:94:24:47:eb:2a:4c:1b:7e:
         87:83:f9:85:8d:68:2e:1b:71:27:d6:3f:2d:ce:cf:72:44:bd:
         1f:02:21:00:98:a6:bf:ec:bc:31:50:9d:11:e0:b5:58:cd:e8:
         df:4a:14:d1:2c:8f:3c:93:10:cc:28:8b:5a:31:eb:72:83:35
-----BEGIN CERTIFICATE-----
MIICFDCCAbmgAwIBAgILAOOaftPfyM4eCNwwCgYIKoZIzj0EAwIwIDERMA8GA1UE
ChMIU29tZSBvcmcxCzAJBgNVBAYTAlVTMB4XDTIyMTAyNTE1NTE0NFoXDTIyMTAy
NjE1NTE0NFowPjEcMBoGA1UEAxMTU0hBS0VOIEludGVybWVkaWF0ZTERMA8GA1UE
ChMIU29tZSBvcmcxCzAJBgNVBAYTAlVTMFkwEwYHKoZIzj0CAQYIKoZIzj0DAQcD
QgAEoeHo3JhOj6ySolSGKUpaBzZmuG6RhaSjgahEgZ2kpgfKixkFQUTq8Hr6by79
ycaO/imuckEy7GvY4gHodeCUVaOBuzCBuDAPBgNVHRMBAf8EBTADAQH/MA4GA1Ud
DwEB/wQEAwICBDAXBgNVHSAEEDAOMAwGCmCGSAGG/wkBAQMwHwYDVR0jBBgwFoAU
DeNugbQkdY+3ykSvExK+L/7ttEswHQYDVR0OBBYEFJLxMWEGIZiBlgCiakZBc/OA
056KMDwGA1UdHwQ1MDMwMaAvoC2GK2h0dHA6Ly9jcmxzLnBraS5nb29nL2d0czFj
My9RT3ZKME4xc1QyQS5jcmwwCgYIKoZIzj0EAwIDSQAwRgIhAMCoQ8CKlCRH6ypM
G36Hg/mFjWguG3En1j8tzs9yRL0fAiEAmKa/7LwxUJ0R4LVYzejfShTRLI88kxDM
KItaMetygzU=
-----END CERTIFICATE-----
