Certificate:
    Data:
        Version: 3 (0x2)
        Serial Number:
            40:6c:f6:ec:22:0f:df:81:a0:95
    Signature Algorithm: ecdsa-with-SHA256
        Issuer: CN=SHAKEN Intermediate, O=Some org, C=US
        Validity
            Not Before: Oct 24 19:45:47 2022 GMT
            Not After : Oct 25 19:45:47 2022 GMT
        Subject: CN=SHAKEN 6628, O=Some org, C=US/serialNumber=12345
        Subject Public Key Info:
            Public Key Algorithm: id-ecPublicKey
                Public-Key: (256 bit)
                pub: 
                    04:71:33:fe:7f:16:24:95:50:09:91:de:ca:52:6c:
                    c3:4b:19:e6:d1:c3:5a:72:c1:82:9d:2a:f6:5b:ec:
                    9e:cd:00:ef:98:ea:07:dc:4c:cc:ab:46:3c:a5:29:
                    d1:e4:d0:11:69:41:93:9f:9f:6e:f5:af:29:fc:16:
                    fc:cf:b5:55:5a
                ASN1 OID: prime256v1
                NIST CURVE: P-256
        X509v3 extensions:
            X509v3 Basic Constraints: critical
                CA:FALSE
            X509v3 Key Usage: 
                Digital Signature
            X509v3 Certificate Policies: 
                Policy: 2.16.840.1.114569.1.1.3

            X509v3 Authority Key Identifier: 
                keyid:FA:36:45:34:8A:CA:73:E2:8C:8C:38:FE:9E:E1:2E:98:1E:97:6E:40

            X509v3 Subject Key Identifier: 
                32:40:25:B3:85:09:B7:5B:DC:94:38:F1:74:FC:7B:07:0A:7E:AA:C2
            X509v3 CRL Distribution Points: 

                Full Name:
                  URI:http://crls.pki.goog/gts1c3/QOvJ0N1sT2A.crl

            1.3.6.1.5.5.7.1.26: 
                0.....6628
            X509v3 Extended Key Usage: 
                1.2.3.4.5
    Signature Algorithm: ecdsa-with-SHA256
         30:45:02:21:00:eb:b2:8c:b9:03:1d:f4:aa:26:56:1c:1e:73:
         a5:d0:2b:5f:1f:36:eb:40:15:3e:54:72:bd:b7:80:33:18:68:
         3e:02:20:5d:39:83:23:16:2b:9f:44:66:55:2d:a2:d0:cd:cf:
         e0:0b:64:b2:90:48:84:22:9e:c4:cf:72:6e:68:37:61:87
-----BEGIN CERTIFICATE-----
MIICWzCCAgGgAwIBAgIKQGz27CIP34GglTAKBggqhkjOPQQDAjA+MRwwGgYDVQQD
ExNTSEFLRU4gSW50ZXJtZWRpYXRlMREwDwYDVQQKEwhTb21lIG9yZzELMAkGA1UE
BhMCVVMwHhcNMjIxMDI0MTk0NTQ3WhcNMjIxMDI1MTk0NTQ3WjBGMRQwEgYDVQQD
EwtTSEFLRU4gNjYyODERMA8GA1UEChMIU29tZSBvcmcxCzAJBgNVBAYTAlVTMQ4w
DAYDVQQFEwUxMjM0NTBZMBMGByqGSM49AgEGCCqGSM49AwEHA0IABHEz/n8WJJVQ
CZHeylJsw0sZ5tHDWnLBgp0q9lvsns0A75jqB9xMzKtGPKUp0eTQEWlBk5+fbvWv
KfwW/M+1VVqjgd4wgdswDAYDVR0TAQH/BAIwADALBgNVHQ8EBAMCB4AwFwYDVR0g
BBAwDjAMBgpghkgBhv8JAQEDMB8GA1UdIwQYMBaAFPo2RTSKynPijIw4/p7hLpge
l25AMB0GA1UdDgQWBBQyQCWzhQm3W9yUOPF0/HsHCn6qwjA8BgNVHR8ENTAzMDGg
L6AthitodHRwOi8vY3Jscy5wa2kuZ29vZy9ndHMxYzMvUU92SjBOMXNUMkEuY3Js
MBYGCCsGAQUFBwEaBAowCKAGFgQ2NjI4MA8GA1UdJQQIMAYGBCoDBAUwCgYIKoZI
zj0EAwIDSAAwRQIhAOuyjLkDHfSqJlYcHnOl0CtfHzbrQBU+VHK9t4AzGGg+AiBd
OYMjFiufRGZVLaLQzc/gC2SykEiEIp7Ez3JuaDdhhw==
-----END CERTIFICATE-----
