Certificate:
    Data:
        Version: 3 (0x2)
        Serial Number:
            53:d1:1c:10:7b:89:e8:86:82:4e
    Signature Algorithm: ecdsa-with-SHA256
        Issuer: CN=SHAKEN Root, O=Some org, C=US
        Validity
            Not Before: Oct 27 00:26:24 2022 GMT
            Not After : Oct 28 00:26:24 2022 GMT
        Subject: CN=SHAKEN Intermediate, O=Some org, C=US
        Subject Public Key Info:
            Public Key Algorithm: id-ecPublicKey
                Public-Key: (256 bit)
                pub: 
                    04:c5:20:25:d3:8c:87:d6:b6:6c:f2:d8:fc:78:46:
                    eb:23:b6:ea:13:3e:a4:35:fd:c2:5e:3f:05:fd:93:
                    7e:34:d0:19:c0:b4:7f:f8:f6:c0:a4:68:2c:cd:94:
                    f4:0b:c2:bd:e3:d6:0b:00:01:ba:7d:78:86:0a:e6:
                    6b:83:e8:e0:04
                ASN1 OID: prime256v1
                NIST CURVE: P-256
        X509v3 extensions:
            X509v3 Basic Constraints: critical
                CA:TRUE
            X509v3 Key Usage: critical
                Certificate Sign
            X509v3 Certificate Policies: 
                Policy: 2.16.840.1.114569.1.1.3

            X509v3 Authority Key Identifier: 
                keyid:40:83:10:06:3B:26:97:B0:26:1B:F4:B9:15:21:84:80:C2:C9:C3:EC

            X509v3 Subject Key Identifier: 
                AD:7C:B9:DF:0F:81:4E:63:EC:AD:F8:CD:FC:AB:2B:64:34:46:C4:F4
            X509v3 CRL Distribution Points: 

                Full Name:
                  URI:https://authenticate-api.iconectiv.com/download/v1/crl

    Signature Algorithm: ecdsa-with-SHA256
         30:46:02:21:00:85:df:42:28:73:a6:48:b1:5f:47:75:e6:2f:
         61:db:db:52:69:a1:6b:9d:cd:5f:38:a1:0c:7f:e5:51:2c:db:
         03:02:21:00:ec:79:2f:58:62:03:35:fe:5c:99:c5:5d:4f:37:
         3b:f4:66:4a:82:b0:12:38:69:e8:c7:38:1c:13:55:c3:6e:e6
-----BEGIN CERTIFICATE-----
MIICNDCCAdmgAwIBAgIKU9EcEHuJ6IaCTjAKBggqhkjOPQQDAjA2MRQwEgYDVQQD
EwtTSEFLRU4gUm9vdDERMA8GA1UEChMIU29tZSBvcmcxCzAJBgNVBAYTAlVTMB4X
DTIyMTAyNzAwMjYyNFoXDTIyMTAyODAwMjYyNFowPjEcMBoGA1UEAxMTU0hBS0VO
IEludGVybWVkaWF0ZTERMA8GA1UEChMIU29tZSBvcmcxCzAJBgNVBAYTAlVTMFkw
EwYHKoZIzj0CAQYIKoZIzj0DAQcDQgAExSAl04yH1rZs8tj8eEbrI7bqEz6kNf3C
Xj8F/ZN+NNAZwLR/+PbApGgszZT0C8K949YLAAG6fXiGCuZrg+jgBKOBxjCBwzAP
BgNVHRMBAf8EBTADAQH/MA4GA1UdDwEB/wQEAwICBDAXBgNVHSAEEDAOMAwGCmCG
SAGG/wkBAQMwHwYDVR0jBBgwFoAUQIMQBjsml7AmG/S5FSGEgMLJw+wwHQYDVR0O
BBYEFK18ud8PgU5j7K34zfyrK2Q0RsT0MEcGA1UdHwRAMD4wPKA6oDiGNmh0dHBz
Oi8vYXV0aGVudGljYXRlLWFwaS5pY29uZWN0aXYuY29tL2Rvd25sb2FkL3YxL2Ny
bDAKBggqhkjOPQQDAgNJADBGAiEAhd9CKHOmSLFfR3XmL2Hb21JpoWudzV84oQx/
5VEs2wMCIQDseS9YYgM1/lyZxV1PNzv0ZkqCsBI4aejHOBwTVcNu5g==
-----END CERTIFICATE-----
