Certificate:
    Data:
        Version: 3 (0x2)
        Serial Number:
            c1:99:7b:8d:df:ea:79:c0:78:16
    Signature Algorithm: ecdsa-with-SHA256
        Issuer: CN=SHAKEN Intermediate
        Validity
            Not Before: Oct 24 14:46:14 2022 GMT
            Not After : Oct 25 14:46:14 2022 GMT
        Subject: CN=SHAKEN 6628, O=Some org, C=US/serialNumber=12345/emailAddress=some@email.com
        Subject Public Key Info:
            Public Key Algorithm: id-ecPublicKey
                Public-Key: (256 bit)
                pub: 
                    04:0b:74:3d:92:1d:28:65:68:4c:9d:ac:10:ac:ba:
                    01:3c:70:37:18:8c:45:1d:c5:91:12:ed:73:36:42:
                    53:80:f2:c2:92:5a:02:4e:41:b4:a8:4d:42:09:96:
                    8e:34:39:6d:a1:74:67:61:04:04:b2:37:fc:4a:63:
                    7a:6f:1c:be:92
                ASN1 OID: prime256v1
                NIST CURVE: P-256
        X509v3 extensions:
            X509v3 Basic Constraints: critical
                CA:FALSE
    Signature Algorithm: ecdsa-with-SHA256
         30:46:02:21:00:e8:dd:bc:50:d0:03:b1:f7:0e:41:90:77:43:
         2f:14:52:6c:91:6d:52:da:b1:0f:d6:15:7b:28:86:fe:96:bd:
         30:02:21:00:e6:24:10:2a:6d:84:05:a4:be:95:14:2a:7f:45:
         b9:66:de:64:be:b4:c0:43:64:14:e4:1f:f5:8c:83:6a:0c:e1
-----BEGIN CERTIFICATE-----
MIIBjTCCATKgAwIBAgILAMGZe43f6nnAeBYwCgYIKoZIzj0EAwIwHjEcMBoGA1UE
AxMTU0hBS0VOIEludGVybWVkaWF0ZTAeFw0yMjEwMjQxNDQ2MTRaFw0yMjEwMjUx
NDQ2MTRaMGUxFDASBgNVBAMTC1NIQUtFTiA2NjI4MREwDwYDVQQKEwhTb21lIG9y
ZzELMAkGA1UEBhMCVVMxDjAMBgNVBAUTBTEyMzQ1MR0wGwYJKoZIhvcNAQkBFg5z
b21lQGVtYWlsLmNvbTBZMBMGByqGSM49AgEGCCqGSM49AwEHA0IABAt0PZIdKGVo
TJ2sEKy6ATxwNxiMRR3FkRLtczZCU4DywpJaAk5BtKhNQgmWjjQ5baF0Z2EEBLI3
/Epjem8cvpKjEDAOMAwGA1UdEwEB/wQCMAAwCgYIKoZIzj0EAwIDSQAwRgIhAOjd
vFDQA7H3DkGQd0MvFFJskW1S2rEP1hV7KIb+lr0wAiEA5iQQKm2EBaS+lRQqf0W5
Zt5kvrTAQ2QU5B/1jINqDOE=
-----END CERTIFICATE-----
