Certificate:
    Data:
        Version: 3 (0x2)
        Serial Number:
            8b:9f:3a:e3:f2:f8:40:83:98:e0
    Signature Algorithm: ecdsa-with-SHA256
        Issuer: CN=SHAKEN Intermediate, O=Some org, C=US
        Validity
            Not Before: Oct 25 17:17:07 2022 GMT
            Not After : Oct 26 17:17:07 2022 GMT
        Subject: CN=SHAKEN 6628, O=Some org/serialNumber=12345
        Subject Public Key Info:
            Public Key Algorithm: id-ecPublicKey
                Public-Key: (256 bit)
                pub: 
                    04:5e:ea:55:9a:9d:92:e3:73:6b:cc:8f:6c:fd:e0:
                    1f:ab:59:13:38:33:58:7e:b1:9c:a6:e4:a2:09:5f:
                    2d:27:c3:82:24:0f:4c:81:43:42:98:08:87:f5:8e:
                    4b:9a:05:df:51:fc:57:4a:85:94:78:c8:e7:f5:8d:
                    21:ac:7a:4b:0c
                ASN1 OID: prime256v1
                NIST CURVE: P-256
        X509v3 extensions:
            X509v3 Basic Constraints: critical
                CA:FALSE
            X509v3 Key Usage: critical
                Digital Signature, Data Encipherment
            X509v3 Certificate Policies: 
                Policy: 2.16.840.1.114569.1.1.3

            X509v3 Authority Key Identifier: 
                keyid:27:DA:78:30:49:2B:A2:C6:EC:63:BE:D2:34:84:3E:69:27:D7:EB:FA

            X509v3 Subject Key Identifier: 
                F5:3C:94:D3:88:AE:8D:D5:65:BC:51:6B:6A:68:CE:2F:4D:A1:76:DE
            X509v3 CRL Distribution Points: 

                Full Name:
                  URI:https://some.unreachable.link.com/

            1.3.6.1.5.5.7.1.26: 
                0.....6628
    Signature Algorithm: ecdsa-with-SHA256
         30:45:02:21:00:f7:39:f1:63:85:a8:14:05:37:4c:6a:ca:02:
         55:80:d2:5d:24:65:4a:6c:6e:5b:b7:42:b2:2c:94:b9:c7:e2:
         b9:02:20:77:5e:66:c4:ac:33:6d:99:97:87:55:3a:8f:22:01:
         f6:a8:b7:ca:f4:2b:92:8e:ab:e5:79:64:2b:6e:c7:41:37
-----BEGIN CERTIFICATE-----
MIICODCCAd6gAwIBAgILAIufOuPy+ECDmOAwCgYIKoZIzj0EAwIwPjEcMBoGA1UE
AxMTU0hBS0VOIEludGVybWVkaWF0ZTERMA8GA1UEChMIU29tZSBvcmcxCzAJBgNV
BAYTAlVTMB4XDTIyMTAyNTE3MTcwN1oXDTIyMTAyNjE3MTcwN1owOTEUMBIGA1UE
AxMLU0hBS0VOIDY2MjgxETAPBgNVBAoTCFNvbWUgb3JnMQ4wDAYDVQQFEwUxMjM0
NTBZMBMGByqGSM49AgEGCCqGSM49AwEHA0IABF7qVZqdkuNza8yPbP3gH6tZEzgz
WH6xnKbkoglfLSfDgiQPTIFDQpgIh/WOS5oF31H8V0qFlHjI5/WNIax6Swyjgccw
gcQwDAYDVR0TAQH/BAIwADAOBgNVHQ8BAf8EBAMCBJAwFwYDVR0gBBAwDjAMBgpg
hkgBhv8JAQEDMB8GA1UdIwQYMBaAFCfaeDBJK6LG7GO+0jSEPmkn1+v6MB0GA1Ud
DgQWBBT1PJTTiK6N1WW8UWtqaM4vTaF23jAzBgNVHR8ELDAqMCigJqAkhiJodHRw
czovL3NvbWUudW5yZWFjaGFibGUubGluay5jb20vMBYGCCsGAQUFBwEaBAowCKAG
FgQ2NjI4MAoGCCqGSM49BAMCA0gAMEUCIQD3OfFjhagUBTdMasoCVYDSXSRlSmxu
W7dCsiyUucfiuQIgd15mxKwzbZmXh1U6jyIB9qi3yvQrko6r5XlkK27HQTc=
-----END CERTIFICATE-----
