Certificate:
    Data:
        Version: 3 (0x2)
        Serial Number: -9222805771102320888 (-0x7ffdfcfbfaf9f8f8)
    Signature Algorithm: ecdsa-with-SHA256
        Issuer: CN=SHAKEN Root, O=Some org, C=US
        Validity
            Not Before: Oct 25 16:39:51 2022 GMT
            Not After : Oct 26 16:39:51 2022 GMT
        Subject: CN=SHAKEN Intermediate, O=Some org, C=US
        Subject Public Key Info:
            Public Key Algorithm: id-ecPublicKey
                Public-Key: (256 bit)
                pub: 
                    04:20:ff:65:6b:43:3e:1e:07:20:f5:bb:3b:b3:0a:
                    8d:80:ce:88:bd:a6:46:76:f4:fa:1c:f4:31:37:64:
                    f1:08:a0:9e:05:8f:65:83:83:5f:ed:b4:f1:9b:8e:
                    c4:95:83:84:32:5c:06:b9:e7:4e:ce:84:2e:69:6a:
                    07:02:b7:30:0e
                ASN1 OID: prime256v1
                NIST CURVE: P-256
        X509v3 extensions:
            X509v3 Basic Constraints: critical
                CA:TRUE
            X509v3 Key Usage: critical
                Certificate Sign
            X509v3 Certificate Policies: 
                Policy: 2.16.840.1.114569.1.1.3

            X509v3 Authority Key Identifier: 
                keyid:10:3D:FD:8B:58:84:FE:4E:0D:75:A4:ED:E8:BA:FE:1F:62:FA:42:B7

            X509v3 Subject Key Identifier: 
                5E:81:2C:D9:7D:C3:0D:B8:36:B6:A7:26:E1:63:29:7F:BE:87:B2:92
            X509v3 CRL Distribution Points: 

                Full Name:
                  URI:http://crls.pki.goog/gts1c3/QOvJ0N1sT2A.crl

    Signature Algorithm: ecdsa-with-SHA256
         30:45:02:20:63:75:19:08:a5:16:f1:cc:49:4e:19:ab:66:49:
         c7:3f:b9:b8:1a:ea:5e:32:4b:af:e2:50:88:bc:7a:c1:d3:c8:
         02:21:00:c0:78:84:ae:5d:d6:6a:a3:22:8f:9e:bc:62:f5:9a:
         c2:92:d0:6c:5b:1a:69:80:ba:6e:a2:bc:a9:53:66:40:ff
-----BEGIN CERTIFICATE-----
MIICJjCCAcygAwIBAgIIgAIDBAUGBwgwCgYIKoZIzj0EAwIwNjEUMBIGA1UEAxML
U0hBS0VOIFJvb3QxETAPBgNVBAoTCFNvbWUgb3JnMQswCQYDVQQGEwJVUzAeFw0y
MjEwMjUxNjM5NTFaFw0yMjEwMjYxNjM5NTFaMD4xHDAaBgNVBAMTE1NIQUtFTiBJ
bnRlcm1lZGlhdGUxETAPBgNVBAoTCFNvbWUgb3JnMQswCQYDVQQGEwJVUzBZMBMG
ByqGSM49AgEGCCqGSM49AwEHA0IABCD/ZWtDPh4HIPW7O7MKjYDOiL2mRnb0+hz0
MTdk8QigngWPZYODX+208ZuOxJWDhDJcBrnnTs6ELmlqBwK3MA6jgbswgbgwDwYD
VR0TAQH/BAUwAwEB/zAOBgNVHQ8BAf8EBAMCAgQwFwYDVR0gBBAwDjAMBgpghkgB
hv8JAQEDMB8GA1UdIwQYMBaAFBA9/YtYhP5ODXWk7ei6/h9i+kK3MB0GA1UdDgQW
BBRegSzZfcMNuDa2pybhYyl/voeykjA8BgNVHR8ENTAzMDGgL6AthitodHRwOi8v
Y3Jscy5wa2kuZ29vZy9ndHMxYzMvUU92SjBOMXNUMkEuY3JsMAoGCCqGSM49BAMC
A0gAMEUCIGN1GQilFvHMSU4Zq2ZJxz+5uBrqXjJLr+JQiLx6wdPIAiEAwHiErl3W
aqMij568YvWawpLQbFsaaYC6bqK8qVNmQP8=
-----END CERTIFICATE-----
