Certificate:
    Data:
        Version: 3 (0x2)
        Serial Number:
            73:83:7b:7c:8e:41:7c:3c:da:a6
    Signature Algorithm: ecdsa-with-SHA256
        Issuer: CN=SHAKEN Root, O=Some org, C=US
        Validity
            Not Before: Oct 24 21:40:53 2022 GMT
            Not After : Oct 25 21:40:53 2022 GMT
        Subject: CN=SHAKEN Root, O=Some org, C=US
        Subject Public Key Info:
            Public Key Algorithm: id-ecPublicKey
                Public-Key: (256 bit)
                pub: 
                    04:72:de:f8:aa:b1:45:9a:43:16:ca:19:3e:30:02:
                    5b:bc:66:65:90:8d:8c:7c:64:c5:41:fa:a0:81:e8:
                    71:b8:24:c5:4a:e3:90:6e:0b:fc:1c:bd:71:d8:73:
                    a6:88:02:80:e4:9f:a5:9a:6f:59:c3:64:bd:fa:5b:
                    3b:fa:d6:79:ef
                ASN1 OID: prime256v1
                NIST CURVE: P-256
        X509v3 extensions:
            X509v3 Basic Constraints: critical
                CA:TRUE
            X509v3 Key Usage: critical
                Certificate Sign
            X509v3 Authority Key Identifier: 
                keyid:48:2A:C5:B9:D3:EA:5B:C7:9D:AF:83:12:B7:F8:91:4A:87:12:5B:D7

            X509v3 Subject Key Identifier: 
                48:2A:C5:B9:D3:EA:5B:C7:9D:AF:83:12:B7:F8:91:4A:87:12:5B:D7
    Signature Algorithm: ecdsa-with-SHA256
         30:45:02:21:00:8c:99:2f:da:1c:46:49:2d:fb:7e:12:cc:34:
         be:7d:af:17:af:b7:75:86:d4:f3:46:5e:f5:0c:50:c8:ce:88:
         24:02:20:73:a6:8e:f2:23:54:e8:63:e0:5f:ff:4e:b3:14:38:
         65:53:e1:c4:65:27:6b:f6:10:62:55:44:ed:0f:81:49:5f
-----BEGIN CERTIFICATE-----
MIIBxzCCAW2gAwIBAgIKc4N7fI5BfDzapjAKBggqhkjOPQQDAjA2MRQwEgYDVQQD
EwtTSEFLRU4gUm9vdDERMA8GA1UEChMIU29tZSBvcmcxCzAJBgNVBAYTAlVTMB4X
DTIyMTAyNDIxNDA1M1oXDTIyMTAyNTIxNDA1M1owNjEUMBIGA1UEAxMLU0hBS0VO
IFJvb3QxETAPBgNVBAoTCFNvbWUgb3JnMQswCQYDVQQGEwJVUzBZMBMGByqGSM49
AgEGCCqGSM49AwEHA0IABHLe+KqxRZpDFsoZPjACW7xmZZCNjHxkxUH6oIHocbgk
xUrjkG4L/By9cdhzpogCgOSfpZpvWcNkvfpbO/rWee+jYzBhMA8GA1UdEwEB/wQF
MAMBAf8wDgYDVR0PAQH/BAQDAgIEMB8GA1UdIwQYMBaAFEgqxbnT6lvHna+DErf4
kUqHElvXMB0GA1UdDgQWBBRIKsW50+pbx52vgxK3+JFKhxJb1zAKBggqhkjOPQQD
AgNIADBFAiEAjJkv2hxGSS37fhLMNL59rxevt3WG1PNGXvUMUMjOiCQCIHOmjvIj
VOhj4F//TrMUOGVT4cRlJ2v2EGJVRO0PgUlf
-----END CERTIFICATE-----
