Certificate:
    Data:
        Version: 3 (0x2)
        Serial Number:
            c3:3e:a4:ae:8a:8b:bc:57:f7:c1
    Signature Algorithm: ecdsa-with-SHA256
        Issuer: CN=SHAKEN Intermediate, O=Some org, C=US
        Validity
            Not Before: Oct 24 20:55:29 2022 GMT
            Not After : Oct 25 20:55:29 2022 GMT
        Subject: CN=SHAKEN 6628, C=US/serialNumber=12345
        Subject Public Key Info:
            Public Key Algorithm: id-ecPublicKey
                Public-Key: (256 bit)
                pub: 
                    04:e7:a0:7d:73:2f:a4:ad:84:57:f8:8a:60:24:c4:
                    34:8a:e8:8c:69:e5:03:51:27:6e:30:8c:7c:5f:d4:
                    b7:4c:71:ae:bc:77:38:a4:1c:3e:48:fd:c7:c0:ce:
                    e4:dc:ab:20:71:ba:b5:f8:02:89:87:d8:6c:99:39:
                    d7:47:5c:21:89
                ASN1 OID: prime256v1
                NIST CURVE: P-256
        X509v3 extensions:
            X509v3 Basic Constraints: critical
                CA:FALSE
            X509v3 Key Usage: critical
                Digital Signature, Data Encipherment
            X509v3 Certificate Policies: 
                Policy: 2.16.840.1.114569.1.1.3

            X509v3 Authority Key Identifier: 
                keyid:73:24:2A:48:06:2F:6F:B9:95:1F:4E:98:65:67:E8:28:3E:81:26:20

            X509v3 Subject Key Identifier: 
                13:D4:DD:98:35:80:48:29:CD:38:18:A2:99:12:33:DC:91:C5:FE:C7
            X509v3 CRL Distribution Points: 

                Full Name:
                  URI:http://crls.pki.goog/gts1c3/QOvJ0N1sT2A.crl

            1.3.6.1.5.5.7.1.26: 
                0.....6629
    Signature Algorithm: ecdsa-with-SHA256
         30:46:02:21:00:9f:9e:bf:e3:49:8e:62:5d:7f:27:4f:cb:ed:
         34:d8:ef:1b:4e:d2:0d:e9:f6:cc:74:e6:78:64:f2:98:85:01:
         c5:02:21:00:8f:04:f1:10:9a:9b:0f:b8:23:36:37:9b:0c:43:
         d8:0b:ca:7e:10:29:d4:58:d8:26:d6:8a:59:93:e9:3f:e7:19
-----BEGIN CERTIFICATE-----
MIICPDCCAeGgAwIBAgILAMM+pK6Ki7xX98EwCgYIKoZIzj0EAwIwPjEcMBoGA1UE
AxMTU0hBS0VOIEludGVybWVkaWF0ZTERMA8GA1UEChMIU29tZSBvcmcxCzAJBgNV
BAYTAlVTMB4XDTIyMTAyNDIwNTUyOVoXDTIyMTAyNTIwNTUyOVowMzEUMBIGA1UE
AxMLU0hBS0VOIDY2MjgxCzAJBgNVBAYTAlVTMQ4wDAYDVQQFEwUxMjM0NTBZMBMG
ByqGSM49AgEGCCqGSM49AwEHA0IABOegfXMvpK2EV/iKYCTENIrojGnlA1EnbjCM
fF/Ut0xxrrx3OKQcPkj9x8DO5NyrIHG6tfgCiYfYbJk510dcIYmjgdAwgc0wDAYD
VR0TAQH/BAIwADAOBgNVHQ8BAf8EBAMCBJAwFwYDVR0gBBAwDjAMBgpghkgBhv8J
AQEDMB8GA1UdIwQYMBaAFHMkKkgGL2+5lR9OmGVn6Cg+gSYgMB0GA1UdDgQWBBQT
1N2YNYBIKc04GKKZEjPckcX+xzA8BgNVHR8ENTAzMDGgL6AthitodHRwOi8vY3Js
cy5wa2kuZ29vZy9ndHMxYzMvUU92SjBOMXNUMkEuY3JsMBYGCCsGAQUFBwEaBAow
CKAGFgQ2NjI5MAoGCCqGSM49BAMCA0kAMEYCIQCfnr/jSY5iXX8nT8vtNNjvG07S
Den2zHTmeGTymIUBxQIhAI8E8RCamw+4IzY3mwxD2AvKfhAp1FjYJtaKWZPpP+cZ
-----END CERTIFICATE-----
