
Certificate:
    Data:
        Version: 3 (0x2)
        Serial Number:
            1e:d1:ac:09:dd:65:2e:35:35:13
    Signature Algorithm: ecdsa-with-SHA256
        Issuer: CN=SHAKEN Intermediate, O=Some org, C=US
        Validity
            Not Before: Oct 24 20:55:12 2022 GMT
            Not After : Oct 25 20:55:12 2022 GMT
        Subject: O=Some org, C=US/serialNumber=12345
        Subject Public Key Info:
            Public Key Algorithm: id-ecPublicKey
                Public-Key: (256 bit)
                pub: 
                    04:f2:74:df:06:1e:cb:c9:c4:4c:06:e3:3d:f1:86:
                    29:ed:b5:c1:18:c1:c2:5f:b6:62:60:ea:a5:70:fd:
                    51:25:1a:13:e2:d0:7b:cb:08:8b:9d:42:07:1c:b5:
                    e0:61:07:d5:2d:69:9b:00:3b:5d:ab:d5:b0:43:ec:
                    bb:5b:0f:2c:df
                ASN1 OID: prime256v1
                NIST CURVE: P-256
        X509v3 extensions:
            X509v3 Basic Constraints: critical
                CA:FALSE
            X509v3 Key Usage: critical
                Digital Signature, Data Encipherment
            X509v3 Certificate Policies: 
                Policy: 2.16.840.1.114569.1.1.3

            X509v3 Authority Key Identifier: 
                keyid:22:7D:D8:6A:BC:DF:CA:04:FA:F3:1E:7D:68:44:79:80:B6:37:A0:C9

            X509v3 Subject Key Identifier: 
                D3:DF:35:04:54:FD:68:BF:D3:28:88:93:62:9F:2E:E4:A3:FF:29:88
            X509v3 CRL Distribution Points: 

                Full Name:
                  URI:http://crls.pki.goog/gts1c3/QOvJ0N1sT2A.crl

            1.3.6.1.5.5.7.1.26: 
                0.....6629
    Signature Algorithm: ecdsa-with-SHA256
         30:45:02:20:2c:0f:1d:ca:88:e8:64:15:a0:b1:e3:1e:c0:f5:
         b8:57:10:ef:0e:f5:6c:d4:a2:14:a8:48:74:00:fd:08:61:f4:
         02:21:00:ce:57:60:8d:d4:d1:2e:21:85:4c:c6:6c:3d:aa:aa:
         3c:93:5a:fb:ad:0f:2b:6d:0e:e5:4b:50:a1:ce:a6:e1:8a
-----BEGIN CERTIFICATE-----
MIICNzCCAd2gAwIBAgIKHtGsCd1lLjU1EzAKBggqhkjOPQQDAjA+MRwwGgYDVQQD
ExNTSEFLRU4gSW50ZXJtZWRpYXRlMREwDwYDVQQKEwhTb21lIG9yZzELMAkGA1UE
BhMCVVMwHhcNMjIxMDI0MjA1NTEyWhcNMjIxMDI1MjA1NTEyWjAwMREwDwYDVQQK
EwhTb21lIG9yZzELMAkGA1UEBhMCVVMxDjAMBgNVBAUTBTEyMzQ1MFkwEwYHKoZI
zj0CAQYIKoZIzj0DAQcDQgAE8nTfBh7LycRMBuM98YYp7bXBGMHCX7ZiYOqlcP1R
JRoT4tB7ywiLnUIHHLXgYQfVLWmbADtdq9WwQ+y7Ww8s36OB0DCBzTAMBgNVHRMB
Af8EAjAAMA4GA1UdDwEB/wQEAwIEkDAXBgNVHSAEEDAOMAwGCmCGSAGG/wkBAQMw
HwYDVR0jBBgwFoAUIn3YarzfygT68x59aER5gLY3oMkwHQYDVR0OBBYEFNPfNQRU
/Wi/0yiIk2KfLuSj/ymIMDwGA1UdHwQ1MDMwMaAvoC2GK2h0dHA6Ly9jcmxzLnBr
aS5nb29nL2d0czFjMy9RT3ZKME4xc1QyQS5jcmwwFgYIKwYBBQUHARoECjAIoAYW
BDY2MjkwCgYIKoZIzj0EAwIDSAAwRQIgLA8dyojoZBWgseMewPW4VxDvDvVs1KIU
qEh0AP0IYfQCIQDOV2CN1NEuIYVMxmw9qqo8k1r7rQ8rbQ7lS1Chzqbhig==
-----END CERTIFICATE-----
