Certificate:
    Data:
        Version: 3 (0x2)
        Serial Number:
            32:ad:0b:4d:c5:4c:0d:c6:2b:39
    Signature Algorithm: ecdsa-with-SHA256
        Issuer: CN=SHAKEN Root, O=Some org, C=US
        Validity
            Not Before: Oct 25 15:51:04 2022 GMT
            Not After : Oct 26 15:51:04 2022 GMT
        Subject: CN=SHAKEN Intermediate, O=Some org, C=US
        Subject Public Key Info:
            Public Key Algorithm: id-ecPublicKey
                Public-Key: (256 bit)
                pub: 
                    04:5a:71:56:8c:f6:04:a8:14:2f:8b:3c:0e:40:1e:
                    40:76:50:55:b5:51:80:df:6a:52:8c:03:65:2f:dc:
                    fa:11:08:04:5c:f0:b7:09:2d:17:04:dd:29:92:e7:
                    35:c0:74:57:a9:84:f5:02:15:28:d2:92:a7:47:56:
                    ca:8a:ed:c4:07
                ASN1 OID: prime256v1
                NIST CURVE: P-256
        X509v3 extensions:
            X509v3 Basic Constraints: critical
                CA:TRUE
            X509v3 Key Usage: critical
                Certificate Sign
            X509v3 Certificate Policies: 
                Policy: 2.16.840.1.114569.1.1.3

            X509v3 Authority Key Identifier: 
                keyid:E6:4D:83:20:85:59:07:19:51:4A:B7:90:A5:28:6B:46:5C:8C:DD:AD

            X509v3 Subject Key Identifier: 
                C9:30:6F:57:C3:33:53:63:7B:BC:EA:F7:4B:4F:4D:C4:87:D5:B8:3A
            X509v3 CRL Distribution Points: 

                Full Name:
                  URI:http://crls.pki.goog/gts1c3/QOvJ0N1sT2A.crl

            X509v3 Extended Key Usage: 
                1.2.3.4.5
    Signature Algorithm: ecdsa-with-SHA256
         30:46:02:21:00:9a:4e:62:52:87:bf:ba:98:fd:10:3a:72:2d:
         b2:d5:22:80:fb:fa:c5:05:1c:5e:6d:5b:a8:7c:59:38:b4:76:
         72:02:21:00:d4:d2:5a:38:2f:70:1b:97:dc:08:98:6b:da:54:
         65:1b:d8:1b:1e:c6:e5:01:e8:51:f6:f8:58:ff:c0:8b:25:7c
-----BEGIN CERTIFICATE-----
MIICOjCCAd+gAwIBAgIKMq0LTcVMDcYrOTAKBggqhkjOPQQDAjA2MRQwEgYDVQQD
EwtTSEFLRU4gUm9vdDERMA8GA1UEChMIU29tZSBvcmcxCzAJBgNVBAYTAlVTMB4X
DTIyMTAyNTE1NTEwNFoXDTIyMTAyNjE1NTEwNFowPjEcMBoGA1UEAxMTU0hBS0VO
IEludGVybWVkaWF0ZTERMA8GA1UEChMIU29tZSBvcmcxCzAJBgNVBAYTAlVTMFkw
EwYHKoZIzj0CAQYIKoZIzj0DAQcDQgAEWnFWjPYEqBQvizwOQB5AdlBVtVGA32pS
jANlL9z6EQgEXPC3CS0XBN0pkuc1wHRXqYT1AhUo0pKnR1bKiu3EB6OBzDCByTAP
BgNVHRMBAf8EBTADAQH/MA4GA1UdDwEB/wQEAwICBDAXBgNVHSAEEDAOMAwGCmCG
SAGG/wkBAQMwHwYDVR0jBBgwFoAU5k2DIIVZBxlRSreQpShrRlyM3a0wHQYDVR0O
BBYEFMkwb1fDM1Nje7zq90tPTcSH1bg6MDwGA1UdHwQ1MDMwMaAvoC2GK2h0dHA6
Ly9jcmxzLnBraS5nb29nL2d0czFjMy9RT3ZKME4xc1QyQS5jcmwwDwYDVR0lBAgw
BgYEKgMEBTAKBggqhkjOPQQDAgNJADBGAiEAmk5iUoe/upj9EDpyLbLVIoD7+sUF
HF5tW6h8WTi0dnICIQDU0lo4L3Abl9wImGvaVGUb2BsexuUB6FH2+Fj/wIslfA==
-----END CERTIFICATE-----
