Certificate:
    Data:
        Version: 3 (0x2)
        Serial Number:
            a9:4f:d5:66:82:5a:fd:2a:f8:f2
    Signature Algorithm: ecdsa-with-SHA256
        Issuer: CN=SHAKEN Intermediate, O=Some org, C=US
        Validity
            Not Before: Oct 24 20:56:33 2022 GMT
            Not After : Oct 25 20:56:33 2022 GMT
        Subject: CN=SHAKEN 6628, O=Some org/serialNumber=12345
        Subject Public Key Info:
            Public Key Algorithm: id-ecPublicKey
                Public-Key: (256 bit)
                pub: 
                    04:2d:f7:f8:06:49:32:61:3f:28:6c:74:c7:97:85:
                    ed:07:b4:39:47:79:d7:2b:1c:5f:12:02:a5:50:4e:
                    25:4a:0b:d2:8b:2c:54:4f:ce:69:7d:bc:75:a6:02:
                    2b:25:72:2e:82:72:37:35:e3:20:9d:0f:2d:49:9e:
                    0d:3c:de:ac:56
                ASN1 OID: prime256v1
                NIST CURVE: P-256
        X509v3 extensions:
            X509v3 Basic Constraints: critical
                CA:FALSE
            X509v3 Key Usage: critical
                Digital Signature, Data Encipherment
            X509v3 Certificate Policies: 
                Policy: 2.16.840.1.114569.1.1.3

            X509v3 Authority Key Identifier: 
                keyid:E8:0F:32:93:66:7A:8F:B5:89:E4:0B:A6:6D:5A:E4:39:31:33:6C:68

            X509v3 Subject Key Identifier: 
                E8:8F:0B:93:62:57:13:99:CB:BA:B5:A9:27:D3:17:F1:9D:37:B3:D6
            X509v3 CRL Distribution Points: 

                Full Name:
                  URI:http://crls.pki.goog/gts1c3/QOvJ0N1sT2A.crl

            1.3.6.1.5.5.7.1.26: 
                0.....6629
    Signature Algorithm: ecdsa-with-SHA256
         30:44:02:20:5e:ef:19:19:b9:44:87:9a:eb:02:8b:5d:f7:37:
         42:4f:6f:a8:a0:76:af:ac:76:a7:6b:c7:c8:75:bb:f3:1e:bd:
         02:20:2c:48:f0:33:49:b1:ed:4c:c1:d4:72:13:89:13:a8:82:
         89:cd:63:2c:7f:92:9f:c4:56:12:79:62:4a:1d:d7:5c
-----BEGIN CERTIFICATE-----
MIICQDCCAeegAwIBAgILAKlP1WaCWv0q+PIwCgYIKoZIzj0EAwIwPjEcMBoGA1UE
AxMTU0hBS0VOIEludGVybWVkaWF0ZTERMA8GA1UEChMIU29tZSBvcmcxCzAJBgNV
BAYTAlVTMB4XDTIyMTAyNDIwNTYzM1oXDTIyMTAyNTIwNTYzM1owOTEUMBIGA1UE
AxMLU0hBS0VOIDY2MjgxETAPBgNVBAoTCFNvbWUgb3JnMQ4wDAYDVQQFEwUxMjM0
NTBZMBMGByqGSM49AgEGCCqGSM49AwEHA0IABC33+AZJMmE/KGx0x5eF7Qe0OUd5
1yscXxICpVBOJUoL0ossVE/OaX28daYCKyVyLoJyNzXjIJ0PLUmeDTzerFajgdAw
gc0wDAYDVR0TAQH/BAIwADAOBgNVHQ8BAf8EBAMCBJAwFwYDVR0gBBAwDjAMBgpg
hkgBhv8JAQEDMB8GA1UdIwQYMBaAFOgPMpNmeo+1ieQLpm1a5DkxM2xoMB0GA1Ud
DgQWBBTojwuTYlcTmcu6takn0xfxnTez1jA8BgNVHR8ENTAzMDGgL6AthitodHRw
Oi8vY3Jscy5wa2kuZ29vZy9ndHMxYzMvUU92SjBOMXNUMkEuY3JsMBYGCCsGAQUF
BwEaBAowCKAGFgQ2NjI5MAoGCCqGSM49BAMCA0cAMEQCIF7vGRm5RIea6wKLXfc3
Qk9vqKB2r6x2p2vHyHW78x69AiAsSPAzSbHtTMHUchOJE6iCic1jLH+Sn8RWEnli
Sh3XXA==
-----END CERTIFICATE-----
