Certificate:
    Data:
        Version: 3 (0x2)
        Serial Number:
            cf:03:6a:43:9d:88:07:f5:a1:84
    Signature Algorithm: ecdsa-with-SHA256
        Issuer: CN=SHAKEN Root, O=Some org, C=US
        Validity
            Not Before: Oct 25 16:04:00 2022 GMT
            Not After : Oct 26 16:04:00 2022 GMT
        Subject: CN=SHAKEN Intermediate, O=Some org, C=US
        Subject Public Key Info:
            Public Key Algorithm: id-ecPublicKey
                Public-Key: (256 bit)
                pub: 
                    04:94:89:5d:c8:53:64:20:66:a7:17:cf:41:23:82:
                    21:75:3f:cb:aa:f0:b8:4e:ad:8a:52:ed:cc:c3:e4:
                    8e:02:37:e7:28:99:ec:5e:d3:1c:20:25:d9:ed:b1:
                    2a:2a:19:3d:fd:d0:79:86:8e:e1:a7:a4:e7:19:b3:
                    5a:03:52:ba:c0
                ASN1 OID: prime256v1
                NIST CURVE: P-256
        X509v3 extensions:
            X509v3 Basic Constraints: critical
                CA:TRUE
            X509v3 Key Usage: critical
                CRL Sign
            X509v3 Certificate Policies: 
                Policy: 2.16.840.1.114569.1.1.3

            X509v3 Authority Key Identifier: 
                keyid:30:29:35:36:02:46:6C:11:58:10:11:7A:50:36:02:44:E3:C8:F0:F4

            X509v3 Subject Key Identifier: 
                73:19:50:B6:1E:D2:50:66:56:F4:22:55:5E:F5:8A:C1:C7:37:EE:83
            X509v3 CRL Distribution Points: 

                Full Name:
                  URI:http://crls.pki.goog/gts1c3/QOvJ0N1sT2A.crl

    Signature Algorithm: ecdsa-with-SHA256
         30:45:02:20:6e:5f:98:b2:88:1f:9d:7c:bd:8e:ac:f7:9d:6e:
         09:1b:3d:51:06:62:f7:f9:a4:1e:20:cd:ab:1b:72:86:23:72:
         02:21:00:aa:37:5f:d8:a7:74:18:33:3e:1b:7b:da:08:e4:66:
         3f:b1:6b:05:98:8a:f6:b0:53:25:9b:0a:21:bc:1a:82:6f
-----BEGIN CERTIFICATE-----
MIICKTCCAc+gAwIBAgILAM8DakOdiAf1oYQwCgYIKoZIzj0EAwIwNjEUMBIGA1UE
AxMLU0hBS0VOIFJvb3QxETAPBgNVBAoTCFNvbWUgb3JnMQswCQYDVQQGEwJVUzAe
Fw0yMjEwMjUxNjA0MDBaFw0yMjEwMjYxNjA0MDBaMD4xHDAaBgNVBAMTE1NIQUtF
TiBJbnRlcm1lZGlhdGUxETAPBgNVBAoTCFNvbWUgb3JnMQswCQYDVQQGEwJVUzBZ
MBMGByqGSM49AgEGCCqGSM49AwEHA0IABJSJXchTZCBmpxfPQSOCIXU/y6rwuE6t
ilLtzMPkjgI35yiZ7F7THCAl2e2xKioZPf3QeYaO4aek5xmzWgNSusCjgbswgbgw
DwYDVR0TAQH/BAUwAwEB/zAOBgNVHQ8BAf8EBAMCAQIwFwYDVR0gBBAwDjAMBgpg
hkgBhv8JAQEDMB8GA1UdIwQYMBaAFDApNTYCRmwRWBARelA2AkTjyPD0MB0GA1Ud
DgQWBBRzGVC2HtJQZlb0IlVe9YrBxzfugzA8BgNVHR8ENTAzMDGgL6AthitodHRw
Oi8vY3Jscy5wa2kuZ29vZy9ndHMxYzMvUU92SjBOMXNUMkEuY3JsMAoGCCqGSM49
BAMCA0gAMEUCIG5fmLKIH518vY6s951uCRs9UQZi9/mkHiDNqxtyhiNyAiEAqjdf
2Kd0GDM+G3vaCORmP7FrBZiK9rBTJZsKIbwagm8=
-----END CERTIFICATE-----
