Certificate:
    Data:
        Version: 3 (0x2)
        Serial Number:
            27:a6:a8:7e:b7:5f:a4:c0:9b:ee
    Signature Algorithm: ecdsa-with-SHA256
        Issuer: O=Some org, C=US
        Validity
            Not Before: Oct 24 19:34:14 2022 GMT
            Not After : Oct 25 19:34:14 2022 GMT
        Subject: CN=SHAKEN 6628, O=Some org, C=US/serialNumber=12345
        Subject Public Key Info:
            Public Key Algorithm: id-ecPublicKey
                Public-Key: (256 bit)
                pub: 
                    04:19:0d:6f:ac:11:8d:60:49:a1:92:3d:ae:30:0f:
                    1c:99:40:94:1b:54:94:2f:16:85:57:db:2c:dc:ab:
                    96:e8:f6:1c:3b:98:e7:42:44:dc:07:13:5a:bd:1f:
                    0a:05:01:60:d5:db:6e:cc:24:b8:a8:46:b7:5a:b8:
                    8f:fa:49:ec:3c
                ASN1 OID: prime256v1
                NIST CURVE: P-256
        X509v3 extensions:
            X509v3 Basic Constraints: critical
                CA:FALSE
            X509v3 Key Usage: 
                Digital Signature
            X509v3 Certificate Policies: 
                Policy: 2.16.840.1.114569.1.1.3

            X509v3 Authority Key Identifier: 
                keyid:F4:CD:5C:BD:0C:D4:99:1B:F3:27:33:55:62:5D:A1:2D:B5:AC:A0:16

            X509v3 Subject Key Identifier: 
                4F:CD:6F:17:99:D1:39:9D:9E:A9:8A:69:AC:9F:76:86:0C:FF:31:BB
            X509v3 CRL Distribution Points: 

                Full Name:
                  URI:http://crls.pki.goog/gts1c3/QOvJ0N1sT2A.crl

            1.3.6.1.5.5.7.1.26: 
                0.....6628
            X509v3 Extended Key Usage: 
                1.2.3.4.5
    Signature Algorithm: ecdsa-with-SHA256
         30:45:02:21:00:8a:d3:96:b0:ff:7c:e3:32:c2:1f:28:d1:06:
         4e:24:88:96:6e:af:2e:aa:9b:df:3a:12:ab:92:99:d3:31:a0:
         5e:02:20:09:82:3d:0f:c7:e2:b2:cb:f0:3f:63:42:eb:cb:94:
         cd:cd:e1:19:b6:6e:6c:db:89:85:a9:06:34:d4:2e:4d:1a
-----BEGIN CERTIFICATE-----
MIICPTCCAeOgAwIBAgIKJ6aofrdfpMCb7jAKBggqhkjOPQQDAjAgMREwDwYDVQQK
EwhTb21lIG9yZzELMAkGA1UEBhMCVVMwHhcNMjIxMDI0MTkzNDE0WhcNMjIxMDI1
MTkzNDE0WjBGMRQwEgYDVQQDEwtTSEFLRU4gNjYyODERMA8GA1UEChMIU29tZSBv
cmcxCzAJBgNVBAYTAlVTMQ4wDAYDVQQFEwUxMjM0NTBZMBMGByqGSM49AgEGCCqG
SM49AwEHA0IABBkNb6wRjWBJoZI9rjAPHJlAlBtUlC8WhVfbLNyrluj2HDuY50JE
3AcTWr0fCgUBYNXbbswkuKhGt1q4j/pJ7Dyjgd4wgdswDAYDVR0TAQH/BAIwADAL
BgNVHQ8EBAMCB4AwFwYDVR0gBBAwDjAMBgpghkgBhv8JAQEDMB8GA1UdIwQYMBaA
FPTNXL0M1Jkb8yczVWJdoS21rKAWMB0GA1UdDgQWBBRPzW8XmdE5nZ6pimmsn3aG
DP8xuzA8BgNVHR8ENTAzMDGgL6AthitodHRwOi8vY3Jscy5wa2kuZ29vZy9ndHMx
YzMvUU92SjBOMXNUMkEuY3JsMBYGCCsGAQUFBwEaBAowCKAGFgQ2NjI4MA8GA1Ud
JQQIMAYGBCoDBAUwCgYIKoZIzj0EAwIDSAAwRQIhAIrTlrD/fOMywh8o0QZOJIiW
bq8uqpvfOhKrkpnTMaBeAiAJgj0Px+Kyy/A/Y0Lry5TNzeEZtm5s24mFqQY01C5N
Gg==
-----END CERTIFICATE-----
