Certificate:
    Data:
        Version: 2 (0x1)
        Serial Number:
            3e:88:d7:1e:85:1b:40:90:8a:fe
    Signature Algorithm: ecdsa-with-SHA256
        Issuer: CN=SHAKEN Intermediate, O=Some org, C=US
        Validity
            Not Before: Oct 24 20:09:13 2022 GMT
            Not After : Oct 25 20:09:13 2022 GMT
        Subject: CN=SHAKEN 6628, O=Some org, C=US/serialNumber=12345
        Subject Public Key Info:
            Public Key Algorithm: id-ecPublicKey
                Public-Key: (256 bit)
                pub: 
                    04:bc:b7:15:68:b2:76:ca:50:2e:7d:80:29:11:70:
                    84:39:de:1b:bd:32:c1:3f:4e:b6:eb:a4:bc:ac:45:
                    51:f8:9f:a0:39:cd:b3:45:62:29:18:7f:52:46:ca:
                    d4:13:5a:b5:2d:60:fb:07:67:d5:ca:69:2c:2e:d1:
                    1b:ee:7f:e1:25
                ASN1 OID: prime256v1
                NIST CURVE: P-256
        X509v3 extensions:
            X509v3 Basic Constraints: critical
                CA:FALSE
            X509v3 Key Usage: critical
                Digital Signature, Data Encipherment
            X509v3 Certificate Policies: 
                Policy: 2.16.840.1.114569.1.1.3

            X509v3 Authority Key Identifier: 
                keyid:A2:33:B9:4C:BA:11:66:EA:9E:4C:B4:11:CD:82:EC:83:CD:DD:CC:47

            X509v3 Subject Key Identifier: 
                49:F4:8D:69:20:45:AE:2B:ED:00:F0:90:F2:16:04:91:15:CB:F4:53
            X509v3 CRL Distribution Points: 

                Full Name:
                  URI:http://crls.pki.goog/gts1c3/QOvJ0N1sT2A.crl

            1.3.6.1.5.5.7.1.26: 
                0.....6628
    Signature Algorithm: ecdsa-with-SHA256
         30:44:02:20:7d:e8:21:c7:5c:2a:0b:b3:1a:a3:8c:73:69:b7:
         1e:28:a9:4a:66:9c:42:0d:ff:15:93:0f:18:64:99:94:33:7d:
         02:20:60:95:0a:44:e9:95:8f:36:ee:72:fb:57:f9:37:40:de:
         23:d4:60:99:36:0d:8b:81:3e:41:f7:62:73:15:fb:91
-----BEGIN CERTIFICATE-----
MIICTDCCAfOgAwIBAQIKPojXHoUbQJCK/jAKBggqhkjOPQQDAjA+MRwwGgYDVQQD
ExNTSEFLRU4gSW50ZXJtZWRpYXRlMREwDwYDVQQKEwhTb21lIG9yZzELMAkGA1UE
BhMCVVMwHhcNMjIxMDI0MjAwOTEzWhcNMjIxMDI1MjAwOTEzWjBGMRQwEgYDVQQD
EwtTSEFLRU4gNjYyODERMA8GA1UEChMIU29tZSBvcmcxCzAJBgNVBAYTAlVTMQ4w
DAYDVQQFEwUxMjM0NTBZMBMGByqGSM49AgEGCCqGSM49AwEHA0IABLy3FWiydspQ
Ln2AKRFwhDneG70ywT9OtuukvKxFUfifoDnNs0ViKRh/UkbK1BNatS1g+wdn1cpp
LC7RG+5/4SWjgdAwgc0wDAYDVR0TAQH/BAIwADAOBgNVHQ8BAf8EBAMCBJAwFwYD
VR0gBBAwDjAMBgpghkgBhv8JAQEDMB8GA1UdIwQYMBaAFKIzuUy6EWbqnky0Ec2C
7IPN3cxHMB0GA1UdDgQWBBRJ9I1pIEWuK+0A8JDyFgSRFcv0UzA8BgNVHR8ENTAz
MDGgL6AthitodHRwOi8vY3Jscy5wa2kuZ29vZy9ndHMxYzMvUU92SjBOMXNUMkEu
Y3JsMBYGCCsGAQUFBwEaBAowCKAGFgQ2NjI4MAoGCCqGSM49BAMCA0cAMEQCIH3o
IcdcKguzGqOMc2m3HiipSmacQg3/FZMPGGSZlDN9AiBglQpE6ZWPNu5y+1f5N0De
I9RgmTYNi4E+QfdicxX7kQ==
-----END CERTIFICATE-----
