Certificate:
    Data:
        Version: 3 (0x2)
        Serial Number:
            f9:37:47:2b:7b:2e:d7:1b:1c:b3
    Signature Algorithm: ecdsa-with-SHA256
        Issuer: CN=SHAKEN Root, O=Some org, C=US
        Validity
            Not Before: Oct 25 17:02:28 2022 GMT
            Not After : Oct 26 17:02:28 2022 GMT
        Subject: CN=SHAKEN Intermediate, C=US
        Subject Public Key Info:
            Public Key Algorithm: id-ecPublicKey
                Public-Key: (256 bit)
                pub: 
                    04:06:df:bd:f9:47:1c:94:82:16:17:80:a7:b2:b0:
                    30:4c:06:f0:04:cf:fe:41:18:95:66:09:2e:45:ff:
                    e6:ba:c0:fb:07:32:d8:93:e3:f6:6f:87:d9:59:96:
                    bc:cc:eb:1c:96:3c:3a:ca:22:75:08:81:a9:b6:64:
                    0e:b3:fe:51:a0
                ASN1 OID: prime256v1
                NIST CURVE: P-256
        X509v3 extensions:
            X509v3 Basic Constraints: critical
                CA:TRUE
            X509v3 Key Usage: critical
                Certificate Sign
            X509v3 Certificate Policies: 
                Policy: 2.16.840.1.114569.1.1.3

            X509v3 Authority Key Identifier: 
                keyid:05:07:C3:8B:D3:58:AE:8B:B4:52:5B:1A:BF:A9:A6:B2:DE:A2:6A:86

            X509v3 Subject Key Identifier: 
                D1:DD:C9:A9:17:24:37:24:4E:D9:66:C6:7C:0E:8F:48:ED:C1:58:2A
            X509v3 CRL Distribution Points: 

                Full Name:
                  URI:http://crls.pki.goog/gts1c3/QOvJ0N1sT2A.crl

    Signature Algorithm: ecdsa-with-SHA256
         30:45:02:20:4d:52:33:cd:0a:bc:bf:7d:c4:17:fb:1c:6d:3a:
         ca:ad:c8:fe:6e:69:86:c2:e2:5c:4a:99:29:bf:fd:1a:1c:bd:
         02:21:00:d9:3f:96:5d:e6:c1:f5:e9:1f:99:ec:58:54:fe:4d:
         eb:fe:75:de:69:43:3d:54:30:a8:53:63:98:d7:0f:66:b3
-----BEGIN CERTIFICATE-----
MIICFjCCAbygAwIBAgILAPk3Ryt7LtcbHLMwCgYIKoZIzj0EAwIwNjEUMBIGA1UE
AxMLU0hBS0VOIFJvb3QxETAPBgNVBAoTCFNvbWUgb3JnMQswCQYDVQQGEwJVUzAe
Fw0yMjEwMjUxNzAyMjhaFw0yMjEwMjYxNzAyMjhaMCsxHDAaBgNVBAMTE1NIQUtF
TiBJbnRlcm1lZGlhdGUxCzAJBgNVBAYTAlVTMFkwEwYHKoZIzj0CAQYIKoZIzj0D
AQcDQgAEBt+9+UcclIIWF4CnsrAwTAbwBM/+QRiVZgkuRf/musD7BzLYk+P2b4fZ
WZa8zOscljw6yiJ1CIGptmQOs/5RoKOBuzCBuDAPBgNVHRMBAf8EBTADAQH/MA4G
A1UdDwEB/wQEAwICBDAXBgNVHSAEEDAOMAwGCmCGSAGG/wkBAQMwHwYDVR0jBBgw
FoAUBQfDi9NYrou0Ulsav6mmst6iaoYwHQYDVR0OBBYEFNHdyakXJDckTtlmxnwO
j0jtwVgqMDwGA1UdHwQ1MDMwMaAvoC2GK2h0dHA6Ly9jcmxzLnBraS5nb29nL2d0
czFjMy9RT3ZKME4xc1QyQS5jcmwwCgYIKoZIzj0EAwIDSAAwRQIgTVIzzQq8v33E
F/scbTrKrcj+bmmGwuJcSpkpv/0aHL0CIQDZP5Zd5sH16R+Z7FhU/k3r/nXeaUM9
VDCoU2OY1w9msw==
-----END CERTIFICATE-----
