Certificate:
    Data:
        Version: 3 (0x2)
        Serial Number:
            b2:20:a1:d8:83:50:45:a7:58:e4
    Signature Algorithm: ecdsa-with-SHA1
        Issuer: CN=SHAKEN Root, O=Some org, C=US
        Validity
            Not Before: Oct 25 16:51:54 2022 GMT
            Not After : Oct 26 16:51:54 2022 GMT
        Subject: CN=Intermediate, O=Some org, C=US
        Subject Public Key Info:
            Public Key Algorithm: id-ecPublicKey
                Public-Key: (256 bit)
                pub: 
                    04:81:65:99:2b:bd:a6:64:62:38:64:55:26:04:71:
                    44:1d:31:2e:b2:9d:26:d4:0d:ff:85:74:a3:e1:35:
                    b5:1f:97:8c:aa:c8:33:f5:b4:a8:f1:89:53:ef:1d:
                    a3:bb:b3:0b:2f:48:85:78:25:80:48:3b:19:33:43:
                    98:60:a8:65:0d
                ASN1 OID: prime256v1
                NIST CURVE: P-256
        X509v3 extensions:
            X509v3 Basic Constraints: critical
                CA:TRUE
            X509v3 Key Usage: critical
                Certificate Sign
            X509v3 Certificate Policies: 
                Policy: 2.16.840.1.114569.1.1.3

            X509v3 Authority Key Identifier: 
                keyid:DC:92:E9:31:01:71:5A:67:4D:88:45:E6:DA:C8:47:24:FF:A7:08:C6

            X509v3 Subject Key Identifier: 
                42:DF:B1:CA:2C:97:95:49:D8:2B:F8:69:E5:6B:A7:98:BC:74:6F:75
            X509v3 CRL Distribution Points: 

                Full Name:
                  URI:http://crls.pki.goog/gts1c3/QOvJ0N1sT2A.crl

    Signature Algorithm: ecdsa-with-SHA1
         30:46:02:21:00:ca:c5:f5:59:db:be:e2:e8:5d:92:31:97:82:
         e1:9e:e3:ec:cb:80:b1:7f:7a:94:d0:8b:c2:30:50:7a:1a:da:
         d9:02:21:00:d0:e5:55:db:83:aa:13:3e:0d:0a:03:d7:ab:3a:
         a4:ec:21:f3:d7:cd:09:8f:7d:5b:7a:e8:7a:f3:f3:97:26:a0
-----BEGIN CERTIFICATE-----
MIICITCCAcegAwIBAgILALIgodiDUEWnWOQwCQYHKoZIzj0EATA2MRQwEgYDVQQD
EwtTSEFLRU4gUm9vdDERMA8GA1UEChMIU29tZSBvcmcxCzAJBgNVBAYTAlVTMB4X
DTIyMTAyNTE2NTE1NFoXDTIyMTAyNjE2NTE1NFowNzEVMBMGA1UEAxMMSW50ZXJt
ZWRpYXRlMREwDwYDVQQKEwhTb21lIG9yZzELMAkGA1UEBhMCVVMwWTATBgcqhkjO
PQIBBggqhkjOPQMBBwNCAASBZZkrvaZkYjhkVSYEcUQdMS6ynSbUDf+FdKPhNbUf
l4yqyDP1tKjxiVPvHaO7swsvSIV4JYBIOxkzQ5hgqGUNo4G7MIG4MA8GA1UdEwEB
/wQFMAMBAf8wDgYDVR0PAQH/BAQDAgIEMBcGA1UdIAQQMA4wDAYKYIZIAYb/CQEB
AzAfBgNVHSMEGDAWgBTckukxAXFaZ02IRebayEck/6cIxjAdBgNVHQ4EFgQUQt+x
yiyXlUnYK/hp5WunmLx0b3UwPAYDVR0fBDUwMzAxoC+gLYYraHR0cDovL2NybHMu
cGtpLmdvb2cvZ3RzMWMzL1FPdkowTjFzVDJBLmNybDAJBgcqhkjOPQQBA0kAMEYC
IQDKxfVZ277i6F2SMZeC4Z7j7MuAsX96lNCLwjBQehra2QIhANDlVduDqhM+DQoD
16s6pOwh89fNCY99W3roevPzlyag
-----END CERTIFICATE-----
