Certificate:
    Data:
        Version: 3 (0x2)
        Serial Number:
            b6:23:ff:6b:3b:03:cf:38:61:e0
    Signature Algorithm: ecdsa-with-SHA256
        Issuer: CN=SHAKEN Intermediate, O=Some org, C=US
        Validity
            Not Before: Oct 24 21:14:59 2022 GMT
            Not After : Oct 25 21:14:59 2022 GMT
        Subject: CN=SHAKEN 6628, O=Some org/serialNumber=12345
        Subject Public Key Info:
            Public Key Algorithm: id-ecPublicKey
                Public-Key: (256 bit)
                pub: 
                    04:36:33:35:36:b5:00:d1:ae:61:9a:e2:87:2b:6a:
                    7a:f7:7f:a5:8d:f5:42:bf:ed:7b:77:4a:4b:0b:b4:
                    0e:3f:20:d4:fe:d0:d1:f8:f0:ac:07:ee:f1:b1:12:
                    81:a1:88:49:9e:dc:07:35:83:86:02:a8:8b:17:55:
                    54:4c:fb:f4:06
                ASN1 OID: prime256v1
                NIST CURVE: P-256
        X509v3 extensions:
            X509v3 Basic Constraints: critical
                CA:FALSE
            X509v3 Key Usage: critical
                Digital Signature, Data Encipherment
            X509v3 Certificate Policies: 
                Policy: 2.16.840.1.114569.1.1.3

            X509v3 Authority Key Identifier: 
                keyid:9C:28:9B:12:D7:87:EC:6A:BD:0E:F0:2C:AB:7D:CC:32:3E:5C:AF:0D

            X509v3 Subject Key Identifier: 
                CD:E6:6C:F2:71:11:F9:2A:DC:ED:A2:FA:60:85:05:45:97:64:70:E7
            X509v3 CRL Distribution Points: 

                Full Name:
                  URI:http://crls.pki.goog/gts1c3/QOvJ0N1sT2A.crl

            1.3.6.1.5.5.7.1.26: 
                0.....6628....6628
    Signature Algorithm: ecdsa-with-SHA256
         30:45:02:21:00:ab:b7:d6:2c:94:88:14:b2:2c:b5:45:ab:9d:
         d7:ee:99:4b:b7:e3:92:c9:95:e3:99:8c:e8:f9:05:90:58:44:
         02:02:20:72:99:6e:d6:e6:0f:4b:ed:12:a6:88:b7:46:5e:92:
         ee:78:3a:85:d2:7e:eb:d8:ee:b1:d0:74:eb:b1:ab:30:ce
-----BEGIN CERTIFICATE-----
MIICSTCCAe+gAwIBAgILALYj/2s7A884YeAwCgYIKoZIzj0EAwIwPjEcMBoGA1UE
AxMTU0hBS0VOIEludGVybWVkaWF0ZTERMA8GA1UEChMIU29tZSBvcmcxCzAJBgNV
BAYTAlVTMB4XDTIyMTAyNDIxMTQ1OVoXDTIyMTAyNTIxMTQ1OVowOTEUMBIGA1UE
AxMLU0hBS0VOIDY2MjgxETAPBgNVBAoTCFNvbWUgb3JnMQ4wDAYDVQQFEwUxMjM0
NTBZMBMGByqGSM49AgEGCCqGSM49AwEHA0IABDYzNTa1ANGuYZrihytqevd/pY31
Qr/te3dKSwu0Dj8g1P7Q0fjwrAfu8bESgaGISZ7cBzWDhgKoixdVVEz79Aajgdgw
gdUwDAYDVR0TAQH/BAIwADAOBgNVHQ8BAf8EBAMCBJAwFwYDVR0gBBAwDjAMBgpg
hkgBhv8JAQEDMB8GA1UdIwQYMBaAFJwomxLXh+xqvQ7wLKt9zDI+XK8NMB0GA1Ud
DgQWBBTN5mzycRH5KtztovpghQVFl2Rw5zA8BgNVHR8ENTAzMDGgL6AthitodHRw
Oi8vY3Jscy5wa2kuZ29vZy9ndHMxYzMvUU92SjBOMXNUMkEuY3JsMB4GCCsGAQUF
BwEaBBIwEKAGFgQ2NjI4oAYWBDY2MjgwCgYIKoZIzj0EAwIDSAAwRQIhAKu31iyU
iBSyLLVFq53X7plLt+OSyZXjmYzo+QWQWEQCAiBymW7W5g9L7RKmiLdGXpLueDqF
0n7r2O6x0HTrsaswzg==
-----END CERTIFICATE-----
