Certificate:
    Data:
        Version: 3 (0x2)
        Serial Number:
            80:f3:85:dc:30:d8:cf:ce:b1:6b
    Signature Algorithm: ecdsa-with-SHA256
        Issuer: CN=SHAKEN Root, O=Some org, C=US
        Validity
            Not Before: Oct 25 16:14:04 2022 GMT
            Not After : Oct 26 16:14:04 2022 GMT
        Subject: CN=SHAKEN Intermediate, O=Some org, C=US
        Subject Public Key Info:
            Public Key Algorithm: id-ecPublicKey
                Public-Key: (256 bit)
                pub: 
                    04:cf:51:a0:92:0f:2d:c5:e6:a6:4f:1d:77:2e:33:
                    fe:a4:03:47:46:b5:a3:37:bc:33:48:8e:9a:3f:53:
                    3d:22:5e:c6:19:eb:eb:c1:bb:fb:47:40:36:a6:68:
                    24:f1:c6:da:91:71:a5:a8:fa:4a:c6:d1:42:b1:d0:
                    6c:03:16:de:90
                ASN1 OID: prime256v1
                NIST CURVE: P-256
        X509v3 extensions:
            X509v3 Basic Constraints: critical
                CA:TRUE
            X509v3 Key Usage: critical
                Certificate Sign, CRL Sign
            X509v3 Certificate Policies: 
                Policy: 2.16.840.1.114569.1.1.3

            X509v3 Authority Key Identifier: 
                keyid:4F:32:88:1D:BF:AD:68:66:3E:F0:86:80:38:0C:FC:91:0C:17:92:FA

            X509v3 Subject Key Identifier: 
                A5:C6:97:16:06:75:A0:12:B1:9F:3A:94:84:1E:CF:EB:F8:D9:0F:7F
            X509v3 CRL Distribution Points: 

                Full Name:
                  URI:http://crls.pki.goog/gts1c3/QOvJ0N1sT2A.crl

    Signature Algorithm: ecdsa-with-SHA256
         30:46:02:21:00:b6:06:b2:9a:6e:84:11:c6:22:14:b1:dd:03:
         84:ec:85:8d:8c:67:01:f6:62:09:91:45:fc:4a:b6:b3:93:f6:
         5f:02:21:00:bc:f2:2e:dd:6e:27:a5:c8:c9:36:ca:a0:20:d2:
         6e:42:87:37:73:46:2f:34:68:e3:03:83:22:a3:d3:20:f1:b1
-----BEGIN CERTIFICATE-----
MIICKjCCAc+gAwIBAgILAIDzhdww2M/OsWswCgYIKoZIzj0EAwIwNjEUMBIGA1UE
AxMLU0hBS0VOIFJvb3QxETAPBgNVBAoTCFNvbWUgb3JnMQswCQYDVQQGEwJVUzAe
Fw0yMjEwMjUxNjE0MDRaFw0yMjEwMjYxNjE0MDRaMD4xHDAaBgNVBAMTE1NIQUtF
TiBJbnRlcm1lZGlhdGUxETAPBgNVBAoTCFNvbWUgb3JnMQswCQYDVQQGEwJVUzBZ
MBMGByqGSM49AgEGCCqGSM49AwEHA0IABM9RoJIPLcXmpk8ddy4z/qQDR0a1oze8
M0iOmj9TPSJexhnr68G7+0dANqZoJPHG2pFxpaj6SsbRQrHQbAMW3pCjgbswgbgw
DwYDVR0TAQH/BAUwAwEB/zAOBgNVHQ8BAf8EBAMCAQYwFwYDVR0gBBAwDjAMBgpg
hkgBhv8JAQEDMB8GA1UdIwQYMBaAFE8yiB2/rWhmPvCGgDgM/JEMF5L6MB0GA1Ud
DgQWBBSlxpcWBnWgErGfOpSEHs/r+NkPfzA8BgNVHR8ENTAzMDGgL6AthitodHRw
Oi8vY3Jscy5wa2kuZ29vZy9ndHMxYzMvUU92SjBOMXNUMkEuY3JsMAoGCCqGSM49
BAMCA0kAMEYCIQC2BrKaboQRxiIUsd0DhOyFjYxnAfZiCZFF/Eq2s5P2XwIhALzy
Lt1uJ6XIyTbKoCDSbkKHN3NGLzRo4wODIqPTIPGx
-----END CERTIFICATE-----
