Certificate:
    Data:
        Version: 3 (0x2)
        Serial Number:
            7f:18:4b:cb:e1:dd:bc:b7:a0:e2
    Signature Algorithm: ecdsa-with-SHA256
        Issuer: CN=SHAKEN Root, O=Some org, C=US
        Validity
            Not Before: Oct 25 15:49:59 2022 GMT
            Not After : Oct 26 15:49:59 2022 GMT
        Subject: CN=SHAKEN Intermediate, O=Some org, C=US
        Subject Public Key Info:
            Public Key Algorithm: id-ecPublicKey
                Public-Key: (256 bit)
                pub: 
                    04:75:b4:81:02:f6:a1:9f:23:ea:c1:dd:68:96:2a:
                    1f:ef:ee:60:4f:40:93:d5:4e:ad:2a:b0:dc:b2:76:
                    51:6b:08:25:c8:33:62:cc:19:8a:c1:32:da:71:e5:
                    55:67:ad:a0:98:4b:0d:6f:d4:b9:d9:10:21:f4:8b:
                    20:2a:ac:7a:59
                ASN1 OID: prime256v1
                NIST CURVE: P-256
        X509v3 extensions:
            X509v3 Basic Constraints: critical
                CA:TRUE
            X509v3 Key Usage: critical
                Certificate Sign
            X509v3 Certificate Policies: 
                Policy: 2.16.840.1.114569.1.1.3

            X509v3 Authority Key Identifier: 
                keyid:4F:BF:18:75:D9:BB:ED:CA:84:37:D7:3D:BE:9C:7F:CE:65:F5:BD:8D

            X509v3 Subject Key Identifier: 
                83:F8:83:45:9F:D5:06:01:44:CF:7C:16:C0:12:73:6D:AD:F4:1A:31
            X509v3 CRL Distribution Points: 

                Full Name:
                  URI:http://crls.pki.goog/gts1c3/QOvJ0N1sT2A.crl

    Signature Algorithm: ecdsa-with-SHA256
         30:44:02:20:78:50:0d:ff:b5:b3:74:55:94:55:38:b8:2c:2f:
         17:13:ae:19:83:f2:ad:96:a6:65:db:da:f5:cb:90:b2:8d:18:
         02:20:36:d3:55:b9:2e:46:7d:af:40:4b:9d:d2:0d:2f:e5:70:
         2f:29:8d:1d:b5:1f:d9:e3:58:e3:7d:20:c5:09:67:c4
-----BEGIN CERTIFICATE-----
MIICJzCCAc6gAwIBAgIKfxhLy+HdvLeg4jAKBggqhkjOPQQDAjA2MRQwEgYDVQQD
EwtTSEFLRU4gUm9vdDERMA8GA1UEChMIU29tZSBvcmcxCzAJBgNVBAYTAlVTMB4X
DTIyMTAyNTE1NDk1OVoXDTIyMTAyNjE1NDk1OVowPjEcMBoGA1UEAxMTU0hBS0VO
IEludGVybWVkaWF0ZTERMA8GA1UEChMIU29tZSBvcmcxCzAJBgNVBAYTAlVTMFkw
EwYHKoZIzj0CAQYIKoZIzj0DAQcDQgAEdbSBAvahnyPqwd1oliof7+5gT0CT1U6t
KrDcsnZRawglyDNizBmKwTLaceVVZ62gmEsNb9S52RAh9IsgKqx6WaOBuzCBuDAP
BgNVHRMBAf8EBTADAQH/MA4GA1UdDwEB/wQEAwICBDAXBgNVHSAEEDAOMAwGCmCG
SAGG/wkBAQMwHwYDVR0jBBgwFoAUT78Yddm77cqEN9c9vpx/zmX1vY0wHQYDVR0O
BBYEFIP4g0Wf1QYBRM98FsASc22t9BoxMDwGA1UdHwQ1MDMwMaAvoC2GK2h0dHA6
Ly9jcmxzLnBraS5nb29nL2d0czFjMy9RT3ZKME4xc1QyQS5jcmwwCgYIKoZIzj0E
AwIDRwAwRAIgeFAN/7WzdFWUVTi4LC8XE64Zg/KtlqZl29r1y5CyjRgCIDbTVbku
Rn2vQEud0g0v5XAvKY0dtR/Z41jjfSDFCWfE
-----END CERTIFICATE-----
