Certificate:
    Data:
        Version: 3 (0x2)
        Serial Number:
            bb:c8:48:44:b5:23:b9:04:71:0c
    Signature Algorithm: ecdsa-with-SHA256
        Issuer: CN=SHAKEN Root, O=Some org, C=US
        Validity
            Not Before: Oct 25 16:56:35 2022 GMT
            Not After : Oct 26 16:56:35 2022 GMT
        Subject: CN=SHAKEN Intermediate, O=Some org, C=US
        Subject Public Key Info:
            Public Key Algorithm: id-ecPublicKey
                Public-Key: (384 bit)
                pub: 
                    04:35:31:8e:6c:e3:31:07:9a:30:c0:b1:ed:a3:5f:
                    63:e2:35:b2:c7:fd:66:e6:73:25:ba:15:60:5c:d6:
                    fc:40:80:f2:ee:32:08:16:34:d7:cc:d9:9a:ea:b5:
                    aa:49:78:f4:95:0d:e7:e7:e2:c0:fd:be:a6:32:3e:
                    ff:36:9f:d2:4f:1b:9d:78:87:81:29:b3:f1:dd:f7:
                    d1:c8:ba:b6:ac:73:01:0e:0a:2d:89:47:29:80:00:
                    5f:e8:4e:1b:57:12:d9
                ASN1 OID: secp384r1
                NIST CURVE: P-384
        X509v3 extensions:
            X509v3 Basic Constraints: critical
                CA:TRUE
            X509v3 Key Usage: critical
                Certificate Sign
            X509v3 Certificate Policies: 
                Policy: 2.16.840.1.114569.1.1.3

            X509v3 Authority Key Identifier: 
                keyid:2B:78:AC:7C:A2:69:A7:0F:3D:CB:92:7C:A9:D1:BC:66:F6:FA:BD:DA

            X509v3 Subject Key Identifier: 
                36:37:C0:9F:8E:BA:FD:F8:C3:D9:C8:4D:6A:F4:4E:E0:4D:3E:09:27
            X509v3 CRL Distribution Points: 

                Full Name:
                  URI:http://crls.pki.goog/gts1c3/QOvJ0N1sT2A.crl

    Signature Algorithm: ecdsa-with-SHA256
         30:65:02:31:00:82:dc:41:af:ea:14:db:a5:72:05:ef:b7:0d:
         38:b5:76:54:00:6d:38:18:97:5f:02:bf:2e:bc:14:bf:13:bf:
         fb:98:a7:64:a0:70:e7:7e:37:ab:3e:3b:c8:1c:d4:5e:f5:02:
         30:2b:62:42:13:c0:c5:c3:98:37:fb:45:b6:19:06:b3:92:b0:
         e2:13:20:99:c4:91:d7:db:0c:e0:33:df:bd:13:3e:8d:ab:b5:
         3e:14:e0:8f:68:7b:8f:b8:95:07:24:1a:d6
-----BEGIN CERTIFICATE-----
MIICZjCCAeygAwIBAgILALvISES1I7kEcQwwCgYIKoZIzj0EAwIwNjEUMBIGA1UE
AxMLU0hBS0VOIFJvb3QxETAPBgNVBAoTCFNvbWUgb3JnMQswCQYDVQQGEwJVUzAe
Fw0yMjEwMjUxNjU2MzVaFw0yMjEwMjYxNjU2MzVaMD4xHDAaBgNVBAMTE1NIQUtF
TiBJbnRlcm1lZGlhdGUxETAPBgNVBAoTCFNvbWUgb3JnMQswCQYDVQQGEwJVUzB2
MBAGByqGSM49AgEGBSuBBAAiA2IABDUxjmzjMQeaMMCx7aNfY+I1ssf9ZuZzJboV
YFzW/ECA8u4yCBY018zZmuq1qkl49JUN5+fiwP2+pjI+/zaf0k8bnXiHgSmz8d33
0ci6tqxzAQ4KLYlHKYAAX+hOG1cS2aOBuzCBuDAPBgNVHRMBAf8EBTADAQH/MA4G
A1UdDwEB/wQEAwICBDAXBgNVHSAEEDAOMAwGCmCGSAGG/wkBAQMwHwYDVR0jBBgw
FoAUK3isfKJppw89y5J8qdG8Zvb6vdowHQYDVR0OBBYEFDY3wJ+Ouv34w9nITWr0
TuBNPgknMDwGA1UdHwQ1MDMwMaAvoC2GK2h0dHA6Ly9jcmxzLnBraS5nb29nL2d0
czFjMy9RT3ZKME4xc1QyQS5jcmwwCgYIKoZIzj0EAwIDaAAwZQIxAILcQa/qFNul
cgXvtw04tXZUAG04GJdfAr8uvBS/E7/7mKdkoHDnfjerPjvIHNRe9QIwK2JCE8DF
w5g3+0W2GQazkrDiEyCZxJHX2wzgM9+9Ez6Nq7U+FOCPaHuPuJUHJBrW
-----END CERTIFICATE-----
