Certificate:
    Data:
        Version: 3 (0x2)
        Serial Number:
            06:2c:c2:2b:55:22:c5:37:bb:29
        Signature Algorithm: ecdsa-with-SHA384
        Issuer: CN = CA
        Validity
            Not Before: Jun  6 22:00:00 2023 GMT
            Not After : Jun  5 22:00:00 2024 GMT
        Subject: CN = Leaf
        Subject Public Key Info:
            Public Key Algorithm: id-ecPublicKey
                Public-Key: (384 bit)
                pub:
                    04:1f:8a:bf:12:47:9d:6d:ef:fa:73:fb:c5:0b:1f:
                    6f:97:2c:16:bd:04:37:5f:c0:ce:b4:2a:07:68:9c:
                    af:04:64:25:d5:35:92:28:94:d2:c7:a6:9e:c6:f1:
                    0a:61:85:3c:69:d9:be:7b:2b:2a:05:83:5f:81:60:
                    e9:a8:e0:f7:f9:f4:d9:75:cf:2e:88:f6:8e:e5:4d:
                    f2:da:c9:07:39:5c:5f:e8:e3:48:13:d0:f1:21:ce:
                    17:ed:24:1e:92:58:b0
                ASN1 OID: secp384r1
                NIST CURVE: P-384
        X509v3 extensions:
            X509v3 Basic Constraints: critical
                CA:FALSE
            X509v3 Certificate Policies: 
                Policy: 2.16.840.1.114569.1.1.4
    Signature Algorithm: ecdsa-with-SHA384
    Signature Value:
        30:64:02:30:20:a9:aa:ab:7e:f6:cd:9f:a5:02:58:65:86:ab:
        53:91:2d:88:bd:7b:38:a4:5c:1a:31:43:20:a2:eb:ea:6d:d5:
        d5:7d:5e:32:1c:65:8b:a1:cb:bf:16:2c:a5:87:2a:2c:02:30:
        16:72:6c:93:d8:55:9a:62:b2:44:4b:79:33:08:22:6f:f7:7c:
        5f:45:41:14:c9:64:f8:ca:c5:3f:22:38:75:a2:78:3d:0c:2e:
        c3:81:51:d6:1e:70:37:12:e1:71:4d:04
-----BEGIN CERTIFICATE-----
MIIBeTCCAQCgAwIBAgIKBizCK1UixTe7KTAKBggqhkjOPQQDAzANMQswCQYDVQQD
EwJDQTAeFw0yMzA2MDYyMjAwMDBaFw0yNDA2MDUyMjAwMDBaMA8xDTALBgNVBAMT
BExlYWYwdjAQBgcqhkjOPQIBBgUrgQQAIgNiAAQfir8SR51t7/pz+8ULH2+XLBa9
BDdfwM60KgdonK8EZCXVNZIolNLHpp7G8QphhTxp2b57KyoFg1+BYOmo4Pf59Nl1
zy6I9o7lTfLayQc5XF/o40gT0PEhzhftJB6SWLCjKTAnMAwGA1UdEwEB/wQCMAAw
FwYDVR0gBBAwDjAMBgpghkgBhv8JAQEEMAoGCCqGSM49BAMDA2cAMGQCMCCpqqt+
9s2fpQJYZYarU5EtiL17OKRcGjFDIKLr6m3V1X1eMhxli6HLvxYspYcqLAIwFnJs
k9hVmmKyREt5Mwgib/d8X0VBFMlk+MrFPyI4daJ4PQwuw4FR1h5wNxLhcU0E
-----END CERTIFICATE-----