Certificate:
    Data:
        Version: 3 (0x2)
        Serial Number:
            d7:eb:87:64:b6:60:62:71:ae:13
    Signature Algorithm: ecdsa-with-SHA1
        Issuer: CN=SHAKEN Intermediate, O=Some org, C=US
        Validity
            Not Before: Oct 24 20:11:25 2022 GMT
            Not After : Oct 25 20:11:25 2022 GMT
        Subject: CN=SHAKEN 6628, O=Some org, C=US/serialNumber=12345
        Subject Public Key Info:
            Public Key Algorithm: id-ecPublicKey
                Public-Key: (256 bit)
                pub: 
                    04:e8:8c:57:06:93:13:6e:d8:04:66:76:8d:7f:35:
                    23:a7:b9:1e:29:e7:02:fe:c4:87:10:25:54:5c:d5:
                    16:46:40:0b:7e:dd:32:6f:fa:f3:c5:86:a9:9d:32:
                    0d:81:0d:67:43:91:8b:c1:82:31:c5:95:b2:26:3e:
                    ec:f5:cd:1c:e0
                ASN1 OID: prime256v1
                NIST CURVE: P-256
        X509v3 extensions:
            X509v3 Basic Constraints: critical
                CA:FALSE
            X509v3 Key Usage: critical
                Digital Signature, Data Encipherment
            X509v3 Certificate Policies: 
                Policy: 2.16.840.1.114569.1.1.3

            X509v3 Authority Key Identifier: 
                keyid:5A:62:9F:2A:84:B0:63:85:10:CC:DD:93:08:2C:E8:77:92:01:1C:86

            X509v3 Subject Key Identifier: 
                7B:F4:D7:E1:A4:75:D3:6B:3F:89:1F:3C:24:1C:33:E9:93:22:9B:CA
            X509v3 CRL Distribution Points: 

                Full Name:
                  URI:http://crls.pki.goog/gts1c3/QOvJ0N1sT2A.crl

            1.3.6.1.5.5.7.1.26: 
                0.....6628
    Signature Algorithm: ecdsa-with-SHA1
         30:46:02:21:00:81:47:60:f2:0e:57:b0:db:d8:11:44:59:68:
         7c:4a:f3:2b:ab:75:29:14:72:8f:ee:8d:09:d2:de:2a:9b:e6:
         bb:02:21:00:8c:a6:d3:4f:48:52:f3:f5:14:48:4f:c1:e8:04:
         f4:e1:14:20:d8:a7:d0:2b:86:d8:75:f3:65:fe:09:3f:dc:1f
-----BEGIN CERTIFICATE-----
MIICTTCCAfOgAwIBAgILANfrh2S2YGJxrhMwCQYHKoZIzj0EATA+MRwwGgYDVQQD
ExNTSEFLRU4gSW50ZXJtZWRpYXRlMREwDwYDVQQKEwhTb21lIG9yZzELMAkGA1UE
BhMCVVMwHhcNMjIxMDI0MjAxMTI1WhcNMjIxMDI1MjAxMTI1WjBGMRQwEgYDVQQD
EwtTSEFLRU4gNjYyODERMA8GA1UEChMIU29tZSBvcmcxCzAJBgNVBAYTAlVTMQ4w
DAYDVQQFEwUxMjM0NTBZMBMGByqGSM49AgEGCCqGSM49AwEHA0IABOiMVwaTE27Y
BGZ2jX81I6e5HinnAv7EhxAlVFzVFkZAC37dMm/688WGqZ0yDYENZ0ORi8GCMcWV
siY+7PXNHOCjgdAwgc0wDAYDVR0TAQH/BAIwADAOBgNVHQ8BAf8EBAMCBJAwFwYD
VR0gBBAwDjAMBgpghkgBhv8JAQEDMB8GA1UdIwQYMBaAFFpinyqEsGOFEMzdkwgs
6HeSARyGMB0GA1UdDgQWBBR79NfhpHXTaz+JHzwkHDPpkyKbyjA8BgNVHR8ENTAz
MDGgL6AthitodHRwOi8vY3Jscy5wa2kuZ29vZy9ndHMxYzMvUU92SjBOMXNUMkEu
Y3JsMBYGCCsGAQUFBwEaBAowCKAGFgQ2NjI4MAkGByqGSM49BAEDSQAwRgIhAIFH
YPIOV7Db2BFEWWh8SvMrq3UpFHKP7o0J0t4qm+a7AiEAjKbTT0hS8/UUSE/B6AT0
4RQg2KfQK4bYdfNl/gk/3B8=
-----END CERTIFICATE-----
