Certificate:
    Data:
        Version: 3 (0x2)
        Serial Number:
            1a:e7:f4:f4:51:74:28:77:7e:2c
    Signature Algorithm: ecdsa-with-SHA256
        Issuer: CN=SHAKEN Intermediate, C=US
        Validity
            Not Before: Oct 24 19:35:56 2022 GMT
            Not After : Oct 25 19:35:56 2022 GMT
        Subject: CN=SHAKEN 6628, O=Some org, C=US/serialNumber=12345
        Subject Public Key Info:
            Public Key Algorithm: id-ecPublicKey
                Public-Key: (256 bit)
                pub: 
                    04:47:59:6e:89:08:0f:63:65:c0:78:85:9f:9a:78:
                    58:fb:34:af:71:d6:62:8d:6a:68:c1:26:0c:e7:17:
                    79:d4:b6:37:4a:13:a8:aa:70:40:0c:df:1f:34:07:
                    04:a6:07:c2:41:61:bf:52:f7:e4:53:aa:70:8c:9e:
                    a8:54:88:f4:01
                ASN1 OID: prime256v1
                NIST CURVE: P-256
        X509v3 extensions:
            X509v3 Basic Constraints: critical
                CA:FALSE
            X509v3 Key Usage: 
                Digital Signature
            X509v3 Certificate Policies: 
                Policy: 2.16.840.1.114569.1.1.3

            X509v3 Authority Key Identifier: 
                keyid:4D:65:37:23:CC:FF:AD:60:1A:15:46:5B:6E:41:17:93:2B:09:7C:24

            X509v3 Subject Key Identifier: 
                9A:A6:1C:18:64:EC:6C:48:04:AA:64:CB:84:64:28:03:24:47:17:59
            X509v3 CRL Distribution Points: 

                Full Name:
                  URI:http://crls.pki.goog/gts1c3/QOvJ0N1sT2A.crl

            1.3.6.1.5.5.7.1.26: 
                0.....6628
            X509v3 Extended Key Usage: 
                1.2.3.4.5
    Signature Algorithm: ecdsa-with-SHA256
         30:44:02:20:35:80:da:50:02:d7:d8:a5:92:be:e7:33:54:36:
         ec:c4:f2:e7:82:f9:90:ed:48:8b:7e:96:64:07:86:bf:a3:d2:
         02:20:59:a2:ae:0f:03:3d:3a:54:87:3c:57:91:88:e0:fd:4b:
         48:a3:a2:2a:19:72:c3:12:4f:b7:df:24:e7:aa:9f:d7
-----BEGIN CERTIFICATE-----
MIICRzCCAe6gAwIBAgIKGuf09FF0KHd+LDAKBggqhkjOPQQDAjArMRwwGgYDVQQD
ExNTSEFLRU4gSW50ZXJtZWRpYXRlMQswCQYDVQQGEwJVUzAeFw0yMjEwMjQxOTM1
NTZaFw0yMjEwMjUxOTM1NTZaMEYxFDASBgNVBAMTC1NIQUtFTiA2NjI4MREwDwYD
VQQKEwhTb21lIG9yZzELMAkGA1UEBhMCVVMxDjAMBgNVBAUTBTEyMzQ1MFkwEwYH
KoZIzj0CAQYIKoZIzj0DAQcDQgAER1luiQgPY2XAeIWfmnhY+zSvcdZijWpowSYM
5xd51LY3ShOoqnBADN8fNAcEpgfCQWG/UvfkU6pwjJ6oVIj0AaOB3jCB2zAMBgNV
HRMBAf8EAjAAMAsGA1UdDwQEAwIHgDAXBgNVHSAEEDAOMAwGCmCGSAGG/wkBAQMw
HwYDVR0jBBgwFoAUTWU3I8z/rWAaFUZbbkEXkysJfCQwHQYDVR0OBBYEFJqmHBhk
7GxIBKpky4RkKAMkRxdZMDwGA1UdHwQ1MDMwMaAvoC2GK2h0dHA6Ly9jcmxzLnBr
aS5nb29nL2d0czFjMy9RT3ZKME4xc1QyQS5jcmwwFgYIKwYBBQUHARoECjAIoAYW
BDY2MjgwDwYDVR0lBAgwBgYEKgMEBTAKBggqhkjOPQQDAgNHADBEAiA1gNpQAtfY
pZK+5zNUNuzE8ueC+ZDtSIt+lmQHhr+j0gIgWaKuDwM9OlSHPFeRiOD9S0ijoioZ
csMST7ffJOeqn9c=
-----END CERTIFICATE-----
