Certificate:
    Data:
        Version: 3 (0x2)
        Serial Number:
            2d:fa:21:80:7e:f7:75:0d:68:0e
        Signature Algorithm: ecdsa-with-SHA256
        Issuer: CN = SHAKEN CA, O = ATIS, C = US
        Validity
            Not Before: Apr  7 22:00:00 2020 GMT
            Not After : Apr  7 22:00:00 2021 GMT
        Subject: CN = SHAKEN Leaf, O = ATIS, C = US
        Subject Public Key Info:
            Public Key Algorithm: id-ecPublicKey
                Public-Key: (256 bit)
                pub:
                    04:bb:05:6d:cb:87:22:65:54:cc:a6:db:03:a1:82:
                    37:ee:e1:67:1a:32:85:56:a8:ba:6d:3b:2a:ac:e9:
                    3d:00:eb:c1:d8:85:da:38:40:8b:be:e9:14:4e:7a:
                    44:8b:a4:cf:15:a7:e0:eb:ae:a5:55:d6:32:02:a3:
                    2a:b6:dc:9d:bb
                ASN1 OID: prime256v1
                NIST CURVE: P-256
        X509v3 extensions:
            X509v3 Basic Constraints: critical
                CA:FALSE
            X509v3 Certificate Policies: 
                Policy: 2.16.840.1.114569.1.1.1
    Signature Algorithm: ecdsa-with-SHA256
    Signature Value:
        30:44:02:20:4e:15:70:0c:39:f4:69:0a:48:76:f3:1f:ef:47:
        31:e9:dd:42:b3:4d:f6:e5:56:7e:a0:00:8a:be:d5:cf:2d:9c:
        02:20:46:a6:05:fa:ff:96:71:7e:24:cc:e4:fe:1a:c4:83:b2:
        b1:b1:21:b6:0c:89:7f:27:de:33:50:66:22:a4:55:c3
-----BEGIN CERTIFICATE-----
MIIBgjCCASmgAwIBAgIKLfohgH73dQ1oDjAKBggqhkjOPQQDAjAwMRIwEAYDVQQD
EwlTSEFLRU4gQ0ExDTALBgNVBAoTBEFUSVMxCzAJBgNVBAYTAlVTMB4XDTIwMDQw
NzIyMDAwMFoXDTIxMDQwNzIyMDAwMFowMjEUMBIGA1UEAxMLU0hBS0VOIExlYWYx
DTALBgNVBAoTBEFUSVMxCzAJBgNVBAYTAlVTMFkwEwYHKoZIzj0CAQYIKoZIzj0D
AQcDQgAEuwVty4ciZVTMptsDoYI37uFnGjKFVqi6bTsqrOk9AOvB2IXaOECLvukU
TnpEi6TPFafg666lVdYyAqMqttydu6MpMCcwDAYDVR0TAQH/BAIwADAXBgNVHSAE
EDAOMAwGCmCGSAGG/wkBAQEwCgYIKoZIzj0EAwIDRwAwRAIgThVwDDn0aQpIdvMf
70cx6d1Cs0325VZ+oACKvtXPLZwCIEamBfr/lnF+JMzk/hrEg7KxsSG2DIl/J94z
UGYipFXD
-----END CERTIFICATE-----