Certificate:
    Data:
        Version: 3 (0x2)
        Serial Number:
            ce:9e:3d:ef:b6:2b:2f:81:fa:e8
    Signature Algorithm: ecdsa-with-SHA256
        Issuer: 
        Validity
            Not Before: Oct 24 22:17:36 2022 GMT
            Not After : Oct 25 22:17:36 2022 GMT
        Subject: 
        Subject Public Key Info:
            Public Key Algorithm: id-ecPublicKey
                Public-Key: (256 bit)
                pub: 
                    04:a4:71:c5:e3:06:a1:f3:18:66:7f:d7:db:11:60:
                    7d:f8:e0:e1:d3:d0:1e:28:a1:25:cf:29:0e:32:9d:
                    a4:11:6c:a7:6e:55:38:c8:1b:33:4b:3b:85:8c:9b:
                    0b:f5:68:4e:8d:0d:84:30:f2:42:da:b3:d9:16:74:
                    3c:fc:ab:fd:61
                ASN1 OID: prime256v1
                NIST CURVE: P-256
        X509v3 extensions:
            X509v3 Basic Constraints: critical
                CA:TRUE
            X509v3 Key Usage: critical
                Certificate Sign
            X509v3 Certificate Policies: critical
                Policy: 2.16.840.1.114569.1.1.3

            X509v3 Authority Key Identifier: 
                keyid:B7:92:17:F1:F6:91:66:77:B4:51:AC:B3:E0:C5:3D:D1:8E:04:EE:9F

            X509v3 Subject Key Identifier: 
                80:64:75:2C:DD:D4:C6:73:C3:81:96:34:D4:DD:F6:3A:DC:DD:1C:27
    Signature Algorithm: ecdsa-with-SHA256
         30:46:02:21:00:a1:da:8a:0f:7f:c2:51:34:dc:4b:ed:9b:f2:
         a9:d0:b7:f2:7a:1b:93:77:62:07:59:2b:f3:64:12:72:5c:9d:
         e5:02:21:00:cc:e7:04:0b:cc:da:3f:50:cd:ab:a4:11:07:10:
         39:d4:90:e8:d3:c6:46:e1:be:fc:cb:7b:ca:5d:5f:c9:fb:9c
-----BEGIN CERTIFICATE-----
MIIBeTCCAR6gAwIBAgILAM6ePe+2Ky+B+ugwCgYIKoZIzj0EAwIwADAeFw0yMjEw
MjQyMjE3MzZaFw0yMjEwMjUyMjE3MzZaMAAwWTATBgcqhkjOPQIBBggqhkjOPQMB
BwNCAASkccXjBqHzGGZ/19sRYH344OHT0B4ooSXPKQ4ynaQRbKduVTjIGzNLO4WM
mwv1aE6NDYQw8kLas9kWdDz8q/1ho38wfTAPBgNVHRMBAf8EBTADAQH/MA4GA1Ud
DwEB/wQEAwICBDAaBgNVHSABAf8EEDAOMAwGCmCGSAGG/wkBAQMwHwYDVR0jBBgw
FoAUt5IX8faRZne0Uayz4MU90Y4E7p8wHQYDVR0OBBYEFIBkdSzd1MZzw4GWNNTd
9jrc3RwnMAoGCCqGSM49BAMCA0kAMEYCIQCh2ooPf8JRNNxL7ZvyqdC38nobk3di
B1kr82QSclyd5QIhAMznBAvM2j9QzaukEQcQOdSQ6NPGRuG+/Mt7yl1fyfuc
-----END CERTIFICATE-----
