Certificate:
    Data:
        Version: 3 (0x2)
        Serial Number:
            04:6d:4a:bf:9f:86:bb:6f:b9:41
    Signature Algorithm: ecdsa-with-SHA256
        Issuer: 
        Validity
            Not Before: Oct 24 22:10:23 2022 GMT
            Not After : Oct 25 22:10:23 2022 GMT
        Subject: 
        Subject Public Key Info:
            Public Key Algorithm: id-ecPublicKey
                Public-Key: (256 bit)
                pub: 
                    04:4e:9e:93:f2:f9:eb:47:ed:c1:fb:f1:5e:72:c1:
                    c3:cf:58:a1:c4:25:c8:52:72:49:0a:20:95:d1:d1:
                    4e:6f:73:da:ef:a5:f5:92:e5:9c:71:c8:9c:e9:a7:
                    09:67:b4:c5:90:21:50:a0:96:11:8a:df:40:0a:06:
                    b6:31:ea:e0:53
                ASN1 OID: prime256v1
                NIST CURVE: P-256
        X509v3 extensions:
            X509v3 Basic Constraints: critical
                CA:TRUE
    Signature Algorithm: ecdsa-with-SHA256
         30:46:02:21:00:b7:07:5c:fd:6e:cc:fd:e4:74:93:e4:54:5d:
         ad:95:92:ec:dc:c7:00:ee:75:9e:c0:71:be:20:e1:7b:9e:f6:
         89:02:21:00:c3:55:f0:d7:6b:33:fe:53:bc:89:0b:73:60:0c:
         7b:21:06:c1:b0:25:ba:60:e6:2c:ad:ef:73:fe:f5:91:7c:bb
-----BEGIN CERTIFICATE-----
MIIBCzCBsaADAgECAgoEbUq/n4a7b7lBMAoGCCqGSM49BAMCMAAwHhcNMjIxMDI0
MjIxMDIzWhcNMjIxMDI1MjIxMDIzWjAAMFkwEwYHKoZIzj0CAQYIKoZIzj0DAQcD
QgAETp6T8vnrR+3B+/FecsHDz1ihxCXIUnJJCiCV0dFOb3Pa76X1kuWcccic6acJ
Z7TFkCFQoJYRit9ACga2MergU6MTMBEwDwYDVR0TAQH/BAUwAwEB/zAKBggqhkjO
PQQDAgNJADBGAiEAtwdc/W7M/eR0k+RUXa2VkuzcxwDudZ7Acb4g4Xue9okCIQDD
VfDXazP+U7yJC3NgDHshBsGwJbpg5iyt73P+9ZF8uw==
-----END CERTIFICATE-----
