Certificate:
    Data:
        Version: 3 (0x2)
        Serial Number:
            3c:87:1e:c5:55:03:bb:27:13:e4
    Signature Algorithm: ecdsa-with-SHA256
        Issuer: CN=SHAKEN Intermediate
        Validity
            Not Before: Oct 24 14:56:19 2022 GMT
            Not After : Oct 25 14:56:19 2022 GMT
        Subject: CN=SHAKEN 6628, O=Some org, C=US/serialNumber=12345/serialNumber=678890
        Subject Public Key Info:
            Public Key Algorithm: id-ecPublicKey
                Public-Key: (256 bit)
                pub: 
                    04:d9:70:dc:93:37:b0:da:58:aa:f6:02:4f:96:0d:
                    75:e8:a8:da:cb:fa:c8:da:6c:a1:e4:bf:9d:dc:5a:
                    55:83:77:b6:45:aa:d0:05:ac:01:7b:41:ce:bb:d8:
                    9d:f9:f7:80:96:ff:ba:46:07:48:b0:47:b0:76:80:
                    52:e4:63:c5:ec
                ASN1 OID: prime256v1
                NIST CURVE: P-256
        X509v3 extensions:
            X509v3 Basic Constraints: critical
                CA:FALSE
            1.3.6.1.5.5.7.1.26: 
                0.....6628
    Signature Algorithm: ecdsa-with-SHA256
         30:46:02:21:00:9d:4c:71:ed:30:86:91:a9:2b:87:67:2b:2a:
         be:08:f9:6b:fd:02:89:c9:c3:ce:04:74:bf:ff:8a:3a:e0:db:
         3d:02:21:00:e3:bb:11:85:d5:05:b5:8f:66:f2:ab:c1:29:6c:
         5f:e1:3c:da:9b:2b:80:9b:da:11:18:e7:a7:59:15:d3:d9:f5
-----BEGIN CERTIFICATE-----
MIIBljCCATugAwIBAgIKPIcexVUDuycT5DAKBggqhkjOPQQDAjAeMRwwGgYDVQQD
ExNTSEFLRU4gSW50ZXJtZWRpYXRlMB4XDTIyMTAyNDE0NTYxOVoXDTIyMTAyNTE0
NTYxOVowVzEUMBIGA1UEAxMLU0hBS0VOIDY2MjgxETAPBgNVBAoTCFNvbWUgb3Jn
MQswCQYDVQQGEwJVUzEOMAwGA1UEBRMFMTIzNDUxDzANBgNVBAUTBjY3ODg5MDBZ
MBMGByqGSM49AgEGCCqGSM49AwEHA0IABNlw3JM3sNpYqvYCT5YNdeio2sv6yNps
oeS/ndxaVYN3tkWq0AWsAXtBzrvYnfn3gJb/ukYHSLBHsHaAUuRjxeyjKDAmMAwG
A1UdEwEB/wQCMAAwFgYIKwYBBQUHARoECjAIoAYWBDY2MjgwCgYIKoZIzj0EAwID
SQAwRgIhAJ1Mce0whpGpK4dnKyq+CPlr/QKJycPOBHS//4o64Ns9AiEA47sRhdUF
tY9m8qvBKWxf4TzamyuAm9oRGOenWRXT2fU=
-----END CERTIFICATE-----
