Certificate:
    Data:
        Version: 3 (0x2)
        Serial Number:
            03:0d:6f:43:df:ce:a6:b6:99:47
    Signature Algorithm: ecdsa-with-SHA256
        Issuer: CN=SHAKEN Intermediate, O=Some org, C=US
        Validity
            Not Before: Oct 24 19:09:40 2022 GMT
            Not After : Oct 25 19:09:40 2022 GMT
        Subject: CN=SHAKEN 6628, O=Some org, C=US/serialNumber=12345
        Subject Public Key Info:
            Public Key Algorithm: id-ecPublicKey
                Public-Key: (256 bit)
                pub: 
                    04:cb:29:92:bc:2f:a2:63:4d:1a:dd:3a:b5:ba:52:
                    34:0a:50:53:79:dc:e6:05:a5:e1:1f:6c:2a:0c:c9:
                    a4:e2:7c:48:4d:1b:fd:0b:aa:9e:75:c6:36:13:f5:
                    f8:5f:65:78:36:22:fa:52:2d:58:f6:20:9d:cf:a0:
                    fc:89:63:45:7f
                ASN1 OID: prime256v1
                NIST CURVE: P-256
        X509v3 extensions:
            X509v3 Basic Constraints: critical
                CA:FALSE
            X509v3 Key Usage: 
                Digital Signature
            X509v3 Certificate Policies: critical
                Policy: 2.16.840.1.114569.1.1.3

            X509v3 Authority Key Identifier: 
                keyid:29:79:05:79:79:8B:F1:33:2E:A5:2D:AE:80:E4:85:0A:4E:4C:B1:5E

            X509v3 Subject Key Identifier: 
                05:8D:FF:EC:B5:8B:E3:0E:FD:A9:FB:E7:4B:83:48:10:77:2F:47:5F
            X509v3 CRL Distribution Points: 

                Full Name:
                  URI:https://authenticate-api.iconectiv.com/download/v1/crl

            1.3.6.1.5.5.7.1.26: 
                0.....6628
    Signature Algorithm: ecdsa-with-SHA256
         30:45:02:21:00:e4:7c:34:bb:9d:e3:44:4f:3f:04:5b:c5:24:
         fc:7f:d0:ff:9e:d7:1c:c1:bc:ea:25:66:78:25:38:d4:ab:93:
         58:02:20:15:dd:0f:0d:8b:5c:45:41:6a:6d:86:b0:c5:c7:db:
         26:3b:05:44:cf:7d:a7:97:a1:45:bf:3e:39:55:d4:68:c0
-----BEGIN CERTIFICATE-----
MIICWDCCAf6gAwIBAgIKAw1vQ9/OpraZRzAKBggqhkjOPQQDAjA+MRwwGgYDVQQD
ExNTSEFLRU4gSW50ZXJtZWRpYXRlMREwDwYDVQQKEwhTb21lIG9yZzELMAkGA1UE
BhMCVVMwHhcNMjIxMDI0MTkwOTQwWhcNMjIxMDI1MTkwOTQwWjBGMRQwEgYDVQQD
EwtTSEFLRU4gNjYyODERMA8GA1UEChMIU29tZSBvcmcxCzAJBgNVBAYTAlVTMQ4w
DAYDVQQFEwUxMjM0NTBZMBMGByqGSM49AgEGCCqGSM49AwEHA0IABMspkrwvomNN
Gt06tbpSNApQU3nc5gWl4R9sKgzJpOJ8SE0b/QuqnnXGNhP1+F9leDYi+lItWPYg
nc+g/IljRX+jgdswgdgwDAYDVR0TAQH/BAIwADALBgNVHQ8EBAMCB4AwGgYDVR0g
AQH/BBAwDjAMBgpghkgBhv8JAQEDMB8GA1UdIwQYMBaAFCl5BXl5i/EzLqUtroDk
hQpOTLFeMB0GA1UdDgQWBBQFjf/stYvjDv2p++dLg0gQdy9HXzBHBgNVHR8EQDA+
MDygOqA4hjZodHRwczovL2F1dGhlbnRpY2F0ZS1hcGkuaWNvbmVjdGl2LmNvbS9k
b3dubG9hZC92MS9jcmwwFgYIKwYBBQUHARoECjAIoAYWBDY2MjgwCgYIKoZIzj0E
AwIDSAAwRQIhAOR8NLud40RPPwRbxST8f9D/ntccwbzqJWZ4JTjUq5NYAiAV3Q8N
i1xFQWpthrDFx9smOwVEz32nl6FFvz45VdRowA==
-----END CERTIFICATE-----
