Certificate:
    Data:
        Version: 3 (0x2)
        Serial Number:
            17:aa:bf:6f:0d:d1:5a:63:17:c5
        Signature Algorithm: ecdsa-with-SHA256
        Issuer: CN = CA
        Validity
            Not Before: Jun  6 22:00:00 2023 GMT
            Not After : Jun  5 22:00:00 2024 GMT
        Subject: CN = Leaf
        Subject Public Key Info:
            Public Key Algorithm: id-ecPublicKey
                Public-Key: (256 bit)
                pub:
                    04:23:e6:9b:0d:6c:2f:48:cc:b5:0a:8c:43:d1:5e:
                    78:a5:eb:29:a6:4b:d6:3d:3b:55:f5:3b:eb:50:78:
                    7a:6d:a2:76:82:03:e0:41:9f:fc:2a:1d:01:b5:2f:
                    67:21:c8:83:c7:af:80:5a:9d:8c:9a:fe:53:06:99:
                    44:9c:31:28:b3
                ASN1 OID: prime256v1
                NIST CURVE: P-256
        X509v3 extensions:
            X509v3 Basic Constraints: critical
                CA:FALSE
            X509v3 Certificate Policies: 
                Policy: 2.16.840.1.114569.1.1.4
    Signature Algorithm: ecdsa-with-SHA256
    Signature Value:
        30:44:02:20:58:42:b9:a0:77:ea:9b:d9:4a:33:0d:d9:7d:8f:
        79:84:12:10:e4:62:d4:fe:c2:c6:b5:d2:1c:a3:1e:02:a4:37:
        02:20:05:16:1a:73:92:74:a1:d7:d1:ac:ac:78:ad:88:9e:4b:
        d9:90:c4:0e:e4:28:75:45:8b:df:96:4b:4c:24:9a:ad
-----BEGIN CERTIFICATE-----
MIIBOzCB46ADAgECAgoXqr9vDdFaYxfFMAoGCCqGSM49BAMCMA0xCzAJBgNVBAMT
AkNBMB4XDTIzMDYwNjIyMDAwMFoXDTI0MDYwNTIyMDAwMFowDzENMAsGA1UEAxME
TGVhZjBZMBMGByqGSM49AgEGCCqGSM49AwEHA0IABCPmmw1sL0jMtQqMQ9FeeKXr
KaZL1j07VfU761B4em2idoID4EGf/CodAbUvZyHIg8evgFqdjJr+UwaZRJwxKLOj
KTAnMAwGA1UdEwEB/wQCMAAwFwYDVR0gBBAwDjAMBgpghkgBhv8JAQEEMAoGCCqG
SM49BAMCA0cAMEQCIFhCuaB36pvZSjMN2X2PeYQSEORi1P7CxrXSHKMeAqQ3AiAF
FhpzknSh19GsrHitiJ5L2ZDEDuQodUWL35ZLTCSarQ==
-----END CERTIFICATE-----