Certificate:
    Data:
        Version: 3 (0x2)
        Serial Number:
            47:65:a8:32:55:63:14:4b:7e:41
    Signature Algorithm: ecdsa-with-SHA256
        Issuer: CN=SHAKEN Intermediate, O=Some org, C=US
        Validity
            Not Before: Oct 27 10:25:27 2022 GMT
            Not After : Oct 28 10:25:27 2022 GMT
        Subject: CN=SHAKEN 6628, O=Some org, C=US/serialNumber=12345
        Subject Public Key Info:
            Public Key Algorithm: id-ecPublicKey
                Public-Key: (256 bit)
                pub: 
                    04:7b:55:34:c5:97:49:31:86:9a:73:9d:20:ff:a5:
                    9a:c0:79:d9:c9:bb:b7:b0:63:30:da:0f:ab:b8:f7:
                    26:9e:c2:a0:84:a6:06:05:e4:05:b1:8a:fc:75:bb:
                    ff:97:26:04:01:65:d4:29:5c:04:27:19:d3:11:a2:
                    94:03:85:46:ed
                ASN1 OID: prime256v1
                NIST CURVE: P-256
        X509v3 extensions:
            X509v3 Basic Constraints: critical
                CA:FALSE
            X509v3 Key Usage: critical
                Digital Signature
            X509v3 Certificate Policies: 
                Policy: 2.16.840.1.114569.1.1.3

            X509v3 Authority Key Identifier: 
                keyid:5A:D5:EB:72:EB:9D:6A:9C:FD:48:92:7B:2B:21:E2:99:75:06:0B:44

            X509v3 Subject Key Identifier: 
                67:50:25:59:57:9E:2A:45:CC:B8:90:14:67:64:1B:F7:9D:16:68:28
            X509v3 CRL Distribution Points: 

                Full Name:
                  URI:http://crls.pki.goog/gts1c3/QOvJ0N1sT2A.crl

            1.3.6.1.5.5.7.1.26: 
                0.....6628
    Signature Algorithm: ecdsa-with-SHA256
         30:45:02:20:63:64:9e:b0:b8:5a:e1:b4:48:64:bb:31:c7:f7:
         f7:c4:0c:8c:fc:ee:4a:32:4f:09:a0:98:d4:25:d1:1d:e9:b7:
         02:21:00:ce:01:a6:d2:de:26:fd:57:26:e2:7f:86:10:fa:7a:
         bc:48:70:fe:aa:3b:96:e0:9b:51:19:f8:3e:a9:3c:6a:9f
-----BEGIN CERTIFICATE-----
MIICTTCCAfOgAwIBAgIKR2WoMlVjFEt+QTAKBggqhkjOPQQDAjA+MRwwGgYDVQQD
ExNTSEFLRU4gSW50ZXJtZWRpYXRlMREwDwYDVQQKEwhTb21lIG9yZzELMAkGA1UE
BhMCVVMwHhcNMjIxMDI3MTAyNTI3WhcNMjIxMDI4MTAyNTI3WjBGMRQwEgYDVQQD
EwtTSEFLRU4gNjYyODERMA8GA1UEChMIU29tZSBvcmcxCzAJBgNVBAYTAlVTMQ4w
DAYDVQQFEwUxMjM0NTBZMBMGByqGSM49AgEGCCqGSM49AwEHA0IABHtVNMWXSTGG
mnOdIP+lmsB52cm7t7BjMNoPq7j3Jp7CoISmBgXkBbGK/HW7/5cmBAFl1ClcBCcZ
0xGilAOFRu2jgdAwgc0wDAYDVR0TAQH/BAIwADAOBgNVHQ8BAf8EBAMCB4AwFwYD
VR0gBBAwDjAMBgpghkgBhv8JAQEDMB8GA1UdIwQYMBaAFFrV63LrnWqc/UiSeysh
4pl1BgtEMB0GA1UdDgQWBBRnUCVZV54qRcy4kBRnZBv3nRZoKDA8BgNVHR8ENTAz
MDGgL6AthitodHRwOi8vY3Jscy5wa2kuZ29vZy9ndHMxYzMvUU92SjBOMXNUMkEu
Y3JsMBYGCCsGAQUFBwEaBAowCKAGFgQ2NjI4MAoGCCqGSM49BAMCA0gAMEUCIGNk
nrC4WuG0SGS7Mcf398QMjPzuSjJPCaCY1CXRHem3AiEAzgGm0t4m/Vcm4n+GEPp6
vEhw/qo7luCbURn4Pqk8ap8=
-----END CERTIFICATE-----
