Certificate:
    Data:
        Version: 3 (0x2)
        Serial Number:
            8c:b4:3a:4a:02:fe:40:38:1e:3c
    Signature Algorithm: ecdsa-with-SHA256
        Issuer: CN=SHAKEN Root
        Validity
            Not Before: Oct 24 14:28:03 2022 GMT
            Not After : Oct 25 14:28:03 2022 GMT
        Subject: CN=SHAKEN Intermediate, O=Some org, C=US/emailAddress=some@email.com
        Subject Public Key Info:
            Public Key Algorithm: id-ecPublicKey
                Public-Key: (256 bit)
                pub: 
                    04:74:6e:c5:1e:ca:88:d5:8b:e9:cb:05:40:93:0c:
                    7e:c5:5d:9b:c8:8f:1c:77:44:ab:be:cc:a8:17:0d:
                    08:80:f3:3f:8e:04:f4:8a:88:b7:49:f9:87:e6:45:
                    35:43:72:5e:10:63:92:7a:9d:dc:70:4e:20:cf:09:
                    08:39:27:55:83
                ASN1 OID: prime256v1
                NIST CURVE: P-256
        X509v3 extensions:
            X509v3 Basic Constraints: critical
                CA:TRUE
    Signature Algorithm: ecdsa-with-SHA256
         30:45:02:20:7f:4d:29:67:08:fe:39:2d:59:00:f3:65:4b:79:
         60:d6:a6:77:22:fc:87:d2:98:17:c5:64:bf:f5:ed:8d:20:2c:
         02:21:00:e1:45:35:d6:66:e9:b1:7c:cb:c6:fd:18:c8:21:3b:
         ee:3e:73:3b:f4:2f:5f:69:ce:f8:b7:2f:bb:2d:42:b2:3b
-----BEGIN CERTIFICATE-----
MIIBfzCCASWgAwIBAgILAIy0OkoC/kA4HjwwCgYIKoZIzj0EAwIwFjEUMBIGA1UE
AxMLU0hBS0VOIFJvb3QwHhcNMjIxMDI0MTQyODAzWhcNMjIxMDI1MTQyODAzWjBd
MRwwGgYDVQQDExNTSEFLRU4gSW50ZXJtZWRpYXRlMREwDwYDVQQKEwhTb21lIG9y
ZzELMAkGA1UEBhMCVVMxHTAbBgkqhkiG9w0BCQEWDnNvbWVAZW1haWwuY29tMFkw
EwYHKoZIzj0CAQYIKoZIzj0DAQcDQgAEdG7FHsqI1YvpywVAkwx+xV2byI8cd0Sr
vsyoFw0IgPM/jgT0ioi3SfmH5kU1Q3JeEGOSep3ccE4gzwkIOSdVg6MTMBEwDwYD
VR0TAQH/BAUwAwEB/zAKBggqhkjOPQQDAgNIADBFAiB/TSlnCP45LVkA82VLeWDW
pnci/IfSmBfFZL/17Y0gLAIhAOFFNdZm6bF8y8b9GMghO+4+czv0L19pzvi3L7st
QrI7
-----END CERTIFICATE-----
