Certificate:
    Data:
        Version: 3 (0x2)
        Serial Number:
            92:0d:c2:81:59:7a:7d:a1:ad:11
    Signature Algorithm: ecdsa-with-SHA256
        Issuer: CN=SHAKEN Root, O=Some org, C=US
        Validity
            Not Before: Oct 25 17:03:07 2022 GMT
            Not After : Oct 26 17:03:07 2022 GMT
        Subject: CN=SHAKEN Intermediate, O=Some org
        Subject Public Key Info:
            Public Key Algorithm: id-ecPublicKey
                Public-Key: (256 bit)
                pub: 
                    04:df:fe:ae:92:5d:2f:3a:24:79:72:d7:33:a3:1c:
                    f2:49:ca:dd:d6:ee:2f:cc:8b:c7:5a:1f:fd:e6:18:
                    f6:3a:c6:ab:09:b9:58:af:a3:81:a3:a3:da:bb:5a:
                    ce:0e:8d:4a:9c:36:7d:3e:52:10:0f:32:33:e0:da:
                    2c:c4:7c:2d:45
                ASN1 OID: prime256v1
                NIST CURVE: P-256
        X509v3 extensions:
            X509v3 Basic Constraints: critical
                CA:TRUE
            X509v3 Key Usage: critical
                Certificate Sign
            X509v3 Certificate Policies: 
                Policy: 2.16.840.1.114569.1.1.3

            X509v3 Authority Key Identifier: 
                keyid:A7:20:25:B6:F1:A6:D2:E0:52:07:9A:29:27:9B:2D:81:EF:48:2C:B7

            X509v3 Subject Key Identifier: 
                CF:51:C2:60:B6:5F:69:6E:1C:44:37:53:68:68:C9:71:03:5C:60:E1
            X509v3 CRL Distribution Points: 

                Full Name:
                  URI:http://crls.pki.goog/gts1c3/QOvJ0N1sT2A.crl

    Signature Algorithm: ecdsa-with-SHA256
         30:45:02:20:7d:a5:1f:9b:8a:78:18:7b:a0:b7:ed:2e:09:1d:
         8f:e3:d6:3c:a4:f9:4e:25:5d:9b:41:f7:97:0c:6b:b5:dc:03:
         02:21:00:ff:52:65:a3:6f:80:92:92:26:41:93:9e:3b:97:04:
         5d:32:a8:90:d6:ce:b5:0d:48:12:b3:2e:7e:83:06:9a:1f
-----BEGIN CERTIFICATE-----
MIICHDCCAcKgAwIBAgILAJINwoFZen2hrREwCgYIKoZIzj0EAwIwNjEUMBIGA1UE
AxMLU0hBS0VOIFJvb3QxETAPBgNVBAoTCFNvbWUgb3JnMQswCQYDVQQGEwJVUzAe
Fw0yMjEwMjUxNzAzMDdaFw0yMjEwMjYxNzAzMDdaMDExHDAaBgNVBAMTE1NIQUtF
TiBJbnRlcm1lZGlhdGUxETAPBgNVBAoTCFNvbWUgb3JnMFkwEwYHKoZIzj0CAQYI
KoZIzj0DAQcDQgAE3/6ukl0vOiR5ctczoxzyScrd1u4vzIvHWh/95hj2OsarCblY
r6OBo6Pau1rODo1KnDZ9PlIQDzIz4NosxHwtRaOBuzCBuDAPBgNVHRMBAf8EBTAD
AQH/MA4GA1UdDwEB/wQEAwICBDAXBgNVHSAEEDAOMAwGCmCGSAGG/wkBAQMwHwYD
VR0jBBgwFoAUpyAltvGm0uBSB5opJ5stge9ILLcwHQYDVR0OBBYEFM9RwmC2X2lu
HEQ3U2hoyXEDXGDhMDwGA1UdHwQ1MDMwMaAvoC2GK2h0dHA6Ly9jcmxzLnBraS5n
b29nL2d0czFjMy9RT3ZKME4xc1QyQS5jcmwwCgYIKoZIzj0EAwIDSAAwRQIgfaUf
m4p4GHugt+0uCR2P49Y8pPlOJV2bQfeXDGu13AMCIQD/UmWjb4CSkiZBk547lwRd
MqiQ1s61DUgSsy5+gwaaHw==
-----END CERTIFICATE-----
