Certificate:
    Data:
        Version: 3 (0x2)
        Serial Number: -9222805771102320888 (-0x7ffdfcfbfaf9f8f8)
    Signature Algorithm: ecdsa-with-SHA256
        Issuer: CN=SHAKEN Root, O=Some org, C=US
        Validity
            Not Before: Oct 25 16:33:18 2022 GMT
            Not After : Oct 26 16:33:18 2022 GMT
        Subject: CN=SHAKEN Intermediate, O=Some org, C=US
        Subject Public Key Info:
            Public Key Algorithm: id-ecPublicKey
                Public-Key: (256 bit)
                pub: 
                    04:de:fa:6b:cc:b1:78:c7:ec:83:96:14:81:8c:15:
                    c3:51:77:73:79:d4:7f:75:41:9a:27:ef:a0:59:7d:
                    4b:ec:5c:27:f7:bb:57:af:b7:d7:84:14:50:91:07:
                    53:2e:df:10:38:4e:d4:a8:97:59:64:01:3c:58:24:
                    95:60:c8:92:d0
                ASN1 OID: prime256v1
                NIST CURVE: P-256
        X509v3 extensions:
            X509v3 Basic Constraints: critical
                CA:TRUE
            X509v3 Key Usage: critical
                Certificate Sign
            X509v3 Certificate Policies: 
                Policy: 2.16.840.1.114569.1.1.3

            X509v3 Authority Key Identifier: 
                keyid:88:D8:C8:77:B2:02:BD:73:C0:34:03:F6:0C:8E:6E:C5:CF:CE:C0:54

            X509v3 Subject Key Identifier: 
                DE:97:95:AD:92:1D:56:49:F6:46:39:43:2C:79:1D:FF:C9:F6:5A:62
            X509v3 CRL Distribution Points: 

                Full Name:
                  URI:http://crls.pki.goog/gts1c3/QOvJ0N1sT2A.crl

    Signature Algorithm: ecdsa-with-SHA256
         30:45:02:20:02:e3:5e:e2:00:39:a0:5c:e5:b4:64:ce:e3:a2:
         ab:c1:e9:23:aa:7b:85:aa:1a:96:02:4b:fb:08:82:48:f5:9c:
         02:21:00:81:72:12:06:84:18:98:a4:be:3f:42:18:f1:b7:a9:
         d3:d7:08:3b:f9:ba:f4:76:86:b5:34:f8:85:fd:fa:3f:84
-----BEGIN CERTIFICATE-----
MIICJjCCAcygAwIBAgIIgAIDBAUGBwgwCgYIKoZIzj0EAwIwNjEUMBIGA1UEAxML
U0hBS0VOIFJvb3QxETAPBgNVBAoTCFNvbWUgb3JnMQswCQYDVQQGEwJVUzAeFw0y
MjEwMjUxNjMzMThaFw0yMjEwMjYxNjMzMThaMD4xHDAaBgNVBAMTE1NIQUtFTiBJ
bnRlcm1lZGlhdGUxETAPBgNVBAoTCFNvbWUgb3JnMQswCQYDVQQGEwJVUzBZMBMG
ByqGSM49AgEGCCqGSM49AwEHA0IABN76a8yxeMfsg5YUgYwVw1F3c3nUf3VBmifv
oFl9S+xcJ/e7V6+314QUUJEHUy7fEDhO1KiXWWQBPFgklWDIktCjgbswgbgwDwYD
VR0TAQH/BAUwAwEB/zAOBgNVHQ8BAf8EBAMCAgQwFwYDVR0gBBAwDjAMBgpghkgB
hv8JAQEDMB8GA1UdIwQYMBaAFIjYyHeyAr1zwDQD9gyObsXPzsBUMB0GA1UdDgQW
BBTel5Wtkh1WSfZGOUMseR3/yfZaYjA8BgNVHR8ENTAzMDGgL6AthitodHRwOi8v
Y3Jscy5wa2kuZ29vZy9ndHMxYzMvUU92SjBOMXNUMkEuY3JsMAoGCCqGSM49BAMC
A0gAMEUCIALjXuIAOaBc5bRkzuOiq8HpI6p7haoalgJL+wiCSPWcAiEAgXISBoQY
mKS+P0IY8bep09cIO/m69HaGtTT4hf36P4Q=
-----END CERTIFICATE-----
