Certificate:
    Data:
        Version: 3 (0x2)
        Serial Number:
            d0:28:2f:57:a9:c0:d6:a7:8e:58
    Signature Algorithm: ecdsa-with-SHA256
        Issuer: CN=SHAKEN Root, C=US
        Validity
            Not Before: Oct 25 15:52:36 2022 GMT
            Not After : Oct 26 15:52:36 2022 GMT
        Subject: CN=SHAKEN Intermediate, O=Some org, C=US
        Subject Public Key Info:
            Public Key Algorithm: id-ecPublicKey
                Public-Key: (256 bit)
                pub: 
                    04:ae:b2:f0:d1:45:c0:79:26:66:ea:7e:42:23:4a:
                    1c:c2:9d:68:3e:da:0d:6d:9b:17:42:a5:d4:10:84:
                    43:73:17:68:27:f3:50:05:12:dc:77:82:55:41:cb:
                    35:31:9b:87:56:44:a7:d0:81:46:63:5d:c7:b3:f2:
                    b1:f8:c4:13:30
                ASN1 OID: prime256v1
                NIST CURVE: P-256
        X509v3 extensions:
            X509v3 Basic Constraints: critical
                CA:TRUE
            X509v3 Key Usage: critical
                Certificate Sign
            X509v3 Certificate Policies: 
                Policy: 2.16.840.1.114569.1.1.3

            X509v3 Authority Key Identifier: 
                keyid:6D:A4:0E:5A:FF:68:23:FA:E7:40:9E:28:59:84:0A:52:2C:BE:A5:3D

            X509v3 Subject Key Identifier: 
                04:37:AC:C8:D0:65:D3:9C:32:43:CC:FF:3A:D1:E6:A9:D3:90:51:C6
            X509v3 CRL Distribution Points: 

                Full Name:
                  URI:http://crls.pki.goog/gts1c3/QOvJ0N1sT2A.crl

    Signature Algorithm: ecdsa-with-SHA256
         30:45:02:20:12:62:9e:99:b9:02:8f:11:a1:f0:78:49:b6:d5:
         51:13:2e:3e:21:2e:fc:1f:1d:5d:01:70:91:21:f4:ae:11:66:
         02:21:00:b4:26:60:7c:48:50:6d:38:66:67:6f:83:5c:08:6a:
         7c:8a:ac:51:88:1d:7d:38:2e:da:0e:60:41:6a:42:80:6f
-----BEGIN CERTIFICATE-----
MIICFjCCAbygAwIBAgILANAoL1epwNanjlgwCgYIKoZIzj0EAwIwIzEUMBIGA1UE
AxMLU0hBS0VOIFJvb3QxCzAJBgNVBAYTAlVTMB4XDTIyMTAyNTE1NTIzNloXDTIy
MTAyNjE1NTIzNlowPjEcMBoGA1UEAxMTU0hBS0VOIEludGVybWVkaWF0ZTERMA8G
A1UEChMIU29tZSBvcmcxCzAJBgNVBAYTAlVTMFkwEwYHKoZIzj0CAQYIKoZIzj0D
AQcDQgAErrLw0UXAeSZm6n5CI0ocwp1oPtoNbZsXQqXUEIRDcxdoJ/NQBRLcd4JV
Qcs1MZuHVkSn0IFGY13Hs/Kx+MQTMKOBuzCBuDAPBgNVHRMBAf8EBTADAQH/MA4G
A1UdDwEB/wQEAwICBDAXBgNVHSAEEDAOMAwGCmCGSAGG/wkBAQMwHwYDVR0jBBgw
FoAUbaQOWv9oI/rnQJ4oWYQKUiy+pT0wHQYDVR0OBBYEFAQ3rMjQZdOcMkPM/zrR
5qnTkFHGMDwGA1UdHwQ1MDMwMaAvoC2GK2h0dHA6Ly9jcmxzLnBraS5nb29nL2d0
czFjMy9RT3ZKME4xc1QyQS5jcmwwCgYIKoZIzj0EAwIDSAAwRQIgEmKembkCjxGh
8HhJttVREy4+IS78Hx1dAXCRIfSuEWYCIQC0JmB8SFBtOGZnb4NcCGp8iqxRiB19
OC7aDmBBakKAbw==
-----END CERTIFICATE-----
