Certificate:
    Data:
        Version: 3 (0x2)
        Serial Number:
            58:cd:eb:21:1d:9a:d3:18:c8:1f
    Signature Algorithm: ecdsa-with-SHA256
        Issuer: CN=SHAKEN Intermediate, O=Some org, C=US
        Validity
            Not Before: Oct 24 20:16:04 2022 GMT
            Not After : Oct 25 20:16:04 2022 GMT
        Subject: CN=SHAKEN 6628, O=Some org, C=US/serialNumber=12345
        Subject Public Key Info:
            Public Key Algorithm: id-ecPublicKey
                Public-Key: (256 bit)
                pub: 
                    04:c6:ab:91:01:e2:48:d2:02:ba:16:e9:38:0a:68:
                    36:47:75:52:ac:e9:79:ce:33:20:67:7d:1a:2f:c8:
                    68:0a:ad:a5:e9:52:f0:52:2d:af:52:82:58:39:4f:
                    55:07:1b:da:a1:8b:c4:a4:4e:52:ac:aa:b3:a6:44:
                    3c:38:74:30:c4
                ASN1 OID: prime256v1
                NIST CURVE: P-256
        X509v3 extensions:
            X509v3 Basic Constraints: critical
                CA:FALSE
            X509v3 Key Usage: critical
                Digital Signature, Data Encipherment
            X509v3 Certificate Policies: 
                Policy: 2.16.840.1.114569.1.1.3

            X509v3 Authority Key Identifier: 
                keyid:06:5B:09:3A:19:F7:F5:4B:D2:5A:D8:39:25:06:76:EE:5F:88:B2:60

            X509v3 Subject Key Identifier: 
                72:E4:F8:DE:0D:59:46:DD:D9:2D:E1:47:26:40:81:DA:8C:01:A4:23
            X509v3 CRL Distribution Points: 

                Full Name:
                  URI:http://crls.pki.goog/gts1c3/QOvJ0N1sT2A.crl

            1.3.6.1.5.5.7.1.26: 
                0.....6629
    Signature Algorithm: ecdsa-with-SHA256
         30:44:02:20:73:43:f0:fa:05:c2:09:ca:b5:e2:65:92:6b:df:
         9f:c5:08:40:57:14:71:b5:77:89:e8:45:b2:c6:4f:eb:d0:e5:
         02:20:0e:b7:94:31:0e:56:12:3a:10:ab:07:89:a7:b9:d2:5d:
         aa:ec:a8:44:ca:29:6c:f2:0f:09:83:c4:cf:8a:b9:4e
-----BEGIN CERTIFICATE-----
MIICTDCCAfOgAwIBAgIKWM3rIR2a0xjIHzAKBggqhkjOPQQDAjA+MRwwGgYDVQQD
ExNTSEFLRU4gSW50ZXJtZWRpYXRlMREwDwYDVQQKEwhTb21lIG9yZzELMAkGA1UE
BhMCVVMwHhcNMjIxMDI0MjAxNjA0WhcNMjIxMDI1MjAxNjA0WjBGMRQwEgYDVQQD
EwtTSEFLRU4gNjYyODERMA8GA1UEChMIU29tZSBvcmcxCzAJBgNVBAYTAlVTMQ4w
DAYDVQQFEwUxMjM0NTBZMBMGByqGSM49AgEGCCqGSM49AwEHA0IABMarkQHiSNIC
uhbpOApoNkd1Uqzpec4zIGd9Gi/IaAqtpelS8FItr1KCWDlPVQcb2qGLxKROUqyq
s6ZEPDh0MMSjgdAwgc0wDAYDVR0TAQH/BAIwADAOBgNVHQ8BAf8EBAMCBJAwFwYD
VR0gBBAwDjAMBgpghkgBhv8JAQEDMB8GA1UdIwQYMBaAFAZbCToZ9/VL0lrYOSUG
du5fiLJgMB0GA1UdDgQWBBRy5PjeDVlG3dkt4UcmQIHajAGkIzA8BgNVHR8ENTAz
MDGgL6AthitodHRwOi8vY3Jscy5wa2kuZ29vZy9ndHMxYzMvUU92SjBOMXNUMkEu
Y3JsMBYGCCsGAQUFBwEaBAowCKAGFgQ2NjI5MAoGCCqGSM49BAMCA0cAMEQCIHND
8PoFwgnKteJlkmvfn8UIQFcUcbV3iehFssZP69DlAiAOt5QxDlYSOhCrB4mnudJd
quyoRMopbPIPCYPEz4q5Tg==
-----END CERTIFICATE-----
