Certificate:
    Data:
        Version: 3 (0x2)
        Serial Number: 283686952306183 (0x1020304050607)
    Signature Algorithm: ecdsa-with-SHA256
        Issuer: CN=SHAKEN Intermediate, O=Some org, C=US
        Validity
            Not Before: Oct 24 20:02:54 2022 GMT
            Not After : Oct 25 20:02:54 2022 GMT
        Subject: CN=SHAKEN 6628, O=Some org, C=US/serialNumber=12345
        Subject Public Key Info:
            Public Key Algorithm: id-ecPublicKey
                Public-Key: (256 bit)
                pub: 
                    04:19:cd:a8:15:9f:b2:d7:be:79:48:ed:c0:fd:82:
                    06:19:fc:d7:6e:d5:86:9f:84:d7:c0:17:52:5d:1e:
                    cb:84:dc:36:f2:5a:77:68:7c:01:84:bf:c1:24:4b:
                    16:a8:55:1c:9a:9a:17:11:8c:2a:c9:a7:76:e6:a1:
                    56:a5:05:63:22
                ASN1 OID: prime256v1
                NIST CURVE: P-256
        X509v3 extensions:
            X509v3 Basic Constraints: critical
                CA:FALSE
            X509v3 Key Usage: critical
                Digital Signature, Data Encipherment
            X509v3 Certificate Policies: 
                Policy: 2.16.840.1.114569.1.1.3

            X509v3 Authority Key Identifier: 
                keyid:E6:56:EB:87:9C:7A:72:BC:F9:24:9B:73:30:12:2A:5F:0E:0E:AF:D3

            X509v3 Subject Key Identifier: 
                8A:1B:38:0E:C1:B0:AC:9F:31:09:FB:17:17:73:87:14:2D:46:32:FE
            X509v3 CRL Distribution Points: 

                Full Name:
                  URI:http://crls.pki.goog/gts1c3/QOvJ0N1sT2A.crl

            1.3.6.1.5.5.7.1.26: 
                0.....6628
    Signature Algorithm: ecdsa-with-SHA256
         30:45:02:20:6a:15:24:64:86:56:96:24:be:8f:74:31:7d:2b:
         db:fe:53:54:93:e9:ce:d0:f5:3f:74:69:ac:aa:77:55:58:67:
         02:21:00:b3:13:0c:0f:04:86:58:77:ca:6d:77:b3:11:3f:bb:
         0b:cc:b5:ad:dd:c9:e7:4e:27:47:b6:c5:86:41:7e:f0:c1
-----BEGIN CERTIFICATE-----
MIICSjCCAfCgAwIBAgIHAQIDBAUGBzAKBggqhkjOPQQDAjA+MRwwGgYDVQQDExNT
SEFLRU4gSW50ZXJtZWRpYXRlMREwDwYDVQQKEwhTb21lIG9yZzELMAkGA1UEBhMC
VVMwHhcNMjIxMDI0MjAwMjU0WhcNMjIxMDI1MjAwMjU0WjBGMRQwEgYDVQQDEwtT
SEFLRU4gNjYyODERMA8GA1UEChMIU29tZSBvcmcxCzAJBgNVBAYTAlVTMQ4wDAYD
VQQFEwUxMjM0NTBZMBMGByqGSM49AgEGCCqGSM49AwEHA0IABBnNqBWfste+eUjt
wP2CBhn8127Vhp+E18AXUl0ey4TcNvJad2h8AYS/wSRLFqhVHJqaFxGMKsmnduah
VqUFYyKjgdAwgc0wDAYDVR0TAQH/BAIwADAOBgNVHQ8BAf8EBAMCBJAwFwYDVR0g
BBAwDjAMBgpghkgBhv8JAQEDMB8GA1UdIwQYMBaAFOZW64ecenK8+SSbczASKl8O
Dq/TMB0GA1UdDgQWBBSKGzgOwbCsnzEJ+xcXc4cULUYy/jA8BgNVHR8ENTAzMDGg
L6AthitodHRwOi8vY3Jscy5wa2kuZ29vZy9ndHMxYzMvUU92SjBOMXNUMkEuY3Js
MBYGCCsGAQUFBwEaBAowCKAGFgQ2NjI4MAoGCCqGSM49BAMCA0gAMEUCIGoVJGSG
VpYkvo90MX0r2/5TVJPpztD1P3RprKp3VVhnAiEAsxMMDwSGWHfKbXezET+7C8y1
rd3J504nR7bFhkF+8ME=
-----END CERTIFICATE-----
