Certificate:
    Data:
        Version: 3 (0x2)
        Serial Number:
            5e:83:f3:cb:35:af:75:74:09:0f
        Signature Algorithm: ecdsa-with-SHA1
        Issuer: CN = CA
        Validity
            Not Before: Jun  6 22:00:00 2023 GMT
            Not After : Jun  5 22:00:00 2024 GMT
        Subject: CN = Leaf
        Subject Public Key Info:
            Public Key Algorithm: id-ecPublicKey
                Public-Key: (256 bit)
                pub:
                    04:12:86:2e:14:7e:66:b0:ed:ea:7b:cd:b4:5c:81:
                    b6:13:7c:23:d8:56:66:62:a0:3b:f7:aa:aa:ac:2b:
                    a8:4a:7d:d7:10:5b:17:b9:1b:82:6a:42:d4:5d:83:
                    79:c6:6d:ef:3d:13:1e:70:cd:b4:ec:ef:c1:dd:a7:
                    37:2a:b1:4d:3b
                ASN1 OID: prime256v1
                NIST CURVE: P-256
        X509v3 extensions:
            X509v3 Basic Constraints: critical
                CA:FALSE
            X509v3 Certificate Policies: 
                Policy: 2.16.840.1.114569.1.1.4
    Signature Algorithm: ecdsa-with-SHA1
    Signature Value:
        30:44:02:20:5d:cd:19:25:b3:f8:5a:0c:e0:1a:b8:26:37:2b:
        5c:96:ac:62:73:da:94:79:02:95:ff:7d:56:ea:6a:f9:ff:1e:
        02:20:62:05:02:41:03:e2:ba:1d:95:75:d5:3c:31:8a:99:e8:
        46:d8:df:60:f2:54:bf:dc:e1:44:a6:9d:2a:67:0c:21
-----BEGIN CERTIFICATE-----
MIIBOTCB4qADAgECAgpeg/PLNa91dAkPMAkGByqGSM49BAEwDTELMAkGA1UEAxMC
Q0EwHhcNMjMwNjA2MjIwMDAwWhcNMjQwNjA1MjIwMDAwWjAPMQ0wCwYDVQQDEwRM
ZWFmMFkwEwYHKoZIzj0CAQYIKoZIzj0DAQcDQgAEEoYuFH5msO3qe820XIG2E3wj
2FZmYqA796qqrCuoSn3XEFsXuRuCakLUXYN5xm3vPRMecM207O/B3ac3KrFNO6Mp
MCcwDAYDVR0TAQH/BAIwADAXBgNVHSAEEDAOMAwGCmCGSAGG/wkBAQQwCQYHKoZI
zj0EAQNHADBEAiBdzRkls/haDOAauCY3K1yWrGJz2pR5ApX/fVbqavn/HgIgYgUC
QQPiuh2VddU8MYqZ6EbY32DyVL/c4USmnSpnDCE=
-----END CERTIFICATE-----