Certificate:
    Data:
        Version: 3 (0x2)
        Serial Number:
            60:71:f8:9e:61:f4:5a:f1:f2:bf
    Signature Algorithm: ecdsa-with-SHA256
        Issuer: CN=SHAKEN Intermediate, O=Some org, C=US
        Validity
            Not Before: Oct 24 19:20:32 2022 GMT
            Not After : Oct 25 19:20:32 2022 GMT
        Subject: CN=SHAKEN 6628, O=Some org, C=US/serialNumber=12345
        Subject Public Key Info:
            Public Key Algorithm: id-ecPublicKey
                Public-Key: (256 bit)
                pub: 
                    04:c4:da:fa:eb:fb:6b:d9:5d:17:67:df:03:f3:8f:
                    b2:36:d1:b7:5f:1e:ae:91:63:19:29:10:88:37:54:
                    1a:f5:96:78:35:48:b6:6c:bc:99:1d:f0:67:59:d2:
                    6a:f7:8b:5f:1c:b3:3a:8b:0d:15:64:b4:bc:fa:0e:
                    19:20:37:74:ba
                ASN1 OID: prime256v1
                NIST CURVE: P-256
        X509v3 extensions:
            X509v3 Basic Constraints: critical
                CA:FALSE
            X509v3 Key Usage: 
                Digital Signature
            X509v3 Certificate Policies: 
                Policy: 2.16.840.1.114569.1.1.3

            X509v3 Authority Key Identifier: 
                keyid:BC:BD:92:42:DF:FA:FC:9F:16:34:1F:D1:F9:7A:A4:50:54:17:10:2E

            X509v3 Subject Key Identifier: 
                66:30:D8:D7:B9:9E:DB:51:66:FB:5C:39:D8:4F:7E:86:2D:FF:6D:60
            X509v3 CRL Distribution Points: 

                Full Name:
                  URI:https://authenticate-api.iconectiv.com/download/v1/crl
                  URI:https://authenticate-api.iconectiv.com/download/v1/crl

            1.3.6.1.5.5.7.1.26: 
                0.....6628
    Signature Algorithm: ecdsa-with-SHA256
         30:45:02:21:00:f8:29:4c:19:ec:6b:2f:f7:b5:ff:1f:ad:2c:
         f4:e2:03:97:af:ed:a9:91:c1:25:d3:45:3c:e5:28:b1:b0:13:
         ff:02:20:65:8f:ba:f4:3e:05:6a:78:80:16:0d:6a:aa:f2:87:
         0d:28:cb:82:3c:18:16:a0:25:15:b8:2f:72:04:9b:7f:79
-----BEGIN CERTIFICATE-----
MIICjzCCAjWgAwIBAgIKYHH4nmH0WvHyvzAKBggqhkjOPQQDAjA+MRwwGgYDVQQD
ExNTSEFLRU4gSW50ZXJtZWRpYXRlMREwDwYDVQQKEwhTb21lIG9yZzELMAkGA1UE
BhMCVVMwHhcNMjIxMDI0MTkyMDMyWhcNMjIxMDI1MTkyMDMyWjBGMRQwEgYDVQQD
EwtTSEFLRU4gNjYyODERMA8GA1UEChMIU29tZSBvcmcxCzAJBgNVBAYTAlVTMQ4w
DAYDVQQFEwUxMjM0NTBZMBMGByqGSM49AgEGCCqGSM49AwEHA0IABMTa+uv7a9ld
F2ffA/OPsjbRt18erpFjGSkQiDdUGvWWeDVItmy8mR3wZ1nSaveLXxyzOosNFWS0
vPoOGSA3dLqjggERMIIBDTAMBgNVHRMBAf8EAjAAMAsGA1UdDwQEAwIHgDAXBgNV
HSAEEDAOMAwGCmCGSAGG/wkBAQMwHwYDVR0jBBgwFoAUvL2SQt/6/J8WNB/R+Xqk
UFQXEC4wHQYDVR0OBBYEFGYw2Ne5nttRZvtcOdhPfoYt/21gMH8GA1UdHwR4MHYw
dKByoHCGNmh0dHBzOi8vYXV0aGVudGljYXRlLWFwaS5pY29uZWN0aXYuY29tL2Rv
d25sb2FkL3YxL2NybIY2aHR0cHM6Ly9hdXRoZW50aWNhdGUtYXBpLmljb25lY3Rp
di5jb20vZG93bmxvYWQvdjEvY3JsMBYGCCsGAQUFBwEaBAowCKAGFgQ2NjI4MAoG
CCqGSM49BAMCA0gAMEUCIQD4KUwZ7Gsv97X/H60s9OIDl6/tqZHBJdNFPOUosbAT
/wIgZY+69D4FaniAFg1qqvKHDSjLgjwYFqAlFbgvcgSbf3k=
-----END CERTIFICATE-----
