Certificate:
    Data:
        Version: 3 (0x2)
        Serial Number:
            47:7a:26:60:ef:17:78:9c:84:d5
    Signature Algorithm: ecdsa-with-SHA256
        Issuer: 
        Validity
            Not Before: Oct 24 22:19:05 2022 GMT
            Not After : Oct 25 22:19:05 2022 GMT
        Subject: 
        Subject Public Key Info:
            Public Key Algorithm: id-ecPublicKey
                Public-Key: (256 bit)
                pub: 
                    04:ae:c2:47:72:19:60:3d:ba:4d:39:e6:cb:fc:80:
                    e2:d3:59:85:90:18:29:98:30:19:3f:d1:cb:10:b2:
                    e8:27:f8:d4:bd:00:65:f9:2e:4a:73:d5:b5:28:8b:
                    28:23:00:cc:38:ac:4c:26:d1:f1:91:2b:e7:30:78:
                    5d:3b:e8:4b:78
                ASN1 OID: prime256v1
                NIST CURVE: P-256
        X509v3 extensions:
            X509v3 Basic Constraints: critical
                CA:TRUE
            X509v3 Key Usage: critical
                Certificate Sign
            X509v3 Authority Key Identifier: 
                keyid:9D:D9:D6:E7:2F:9C:B5:79:5F:AA:3E:7C:F3:4D:D9:87:94:9E:92:91

            X509v3 Subject Key Identifier: 
                16:4F:81:6F:5F:E1:C9:4B:73:C2:13:55:7B:7B:D3:61:62:D2:FF:6C
    Signature Algorithm: ecdsa-with-SHA256
         30:44:02:20:1b:18:27:04:53:9e:82:83:0d:8d:e0:36:03:a5:
         ab:e5:b0:3b:53:47:cc:66:1e:44:8c:f2:20:2a:5b:90:42:b9:
         02:20:6d:3b:ca:8c:81:d2:24:cd:18:05:80:bb:6f:86:35:29:
         74:5a:08:2c:ab:4e:21:a9:0c:2f:17:e7:e2:59:47:db
-----BEGIN CERTIFICATE-----
MIIBWjCCAQGgAwIBAgIKR3omYO8XeJyE1TAKBggqhkjOPQQDAjAAMB4XDTIyMTAy
NDIyMTkwNVoXDTIyMTAyNTIyMTkwNVowADBZMBMGByqGSM49AgEGCCqGSM49AwEH
A0IABK7CR3IZYD26TTnmy/yA4tNZhZAYKZgwGT/RyxCy6Cf41L0AZfkuSnPVtSiL
KCMAzDisTCbR8ZEr5zB4XTvoS3ijYzBhMA8GA1UdEwEB/wQFMAMBAf8wDgYDVR0P
AQH/BAQDAgIEMB8GA1UdIwQYMBaAFJ3Z1ucvnLV5X6o+fPNN2YeUnpKRMB0GA1Ud
DgQWBBQWT4FvX+HJS3PCE1V7e9NhYtL/bDAKBggqhkjOPQQDAgNHADBEAiAbGCcE
U56Cgw2N4DYDpavlsDtTR8xmHkSM8iAqW5BCuQIgbTvKjIHSJM0YBYC7b4Y1KXRa
CCyrTiGpDC8X5+JZR9s=
-----END CERTIFICATE-----
