Certificate:
    Data:
        Version: 3 (0x2)
        Serial Number:
            2b:59:eb:48:92:0d:3b:f5:09:6e
        Signature Algorithm: ecdsa-with-SHA256
        Issuer: CN = SHAKEN CA, O = ATIS, C = US
        Validity
            Not Before: Jul 26 22:00:00 2021 GMT
            Not After : Jul 26 22:00:00 2022 GMT
        Subject: CN = SHAKEN Leaf, O = ATIS, C = US
        Subject Public Key Info:
            Public Key Algorithm: id-ecPublicKey
                Public-Key: (256 bit)
                pub:
                    04:c4:52:48:39:fe:46:89:4e:cb:f3:38:ee:1d:d0:
                    0b:5e:66:03:fb:dc:c0:6d:a1:eb:2d:70:37:6b:55:
                    29:dd:a9:a4:62:1e:24:c5:d1:5d:7d:b4:5c:98:e2:
                    4a:30:50:2c:1f:64:83:47:b8:97:24:88:61:1b:8b:
                    e8:9e:8d:9f:a5
                ASN1 OID: prime256v1
                NIST CURVE: P-256
        X509v3 extensions:
            X509v3 Basic Constraints: critical
                CA:FALSE
            X509v3 Certificate Policies: 
                Policy: 2.16.840.1.114569.1.1.2
    Signature Algorithm: ecdsa-with-SHA256
    Signature Value:
        30:45:02:21:00:af:92:97:75:19:2d:ec:b9:3a:07:5a:8e:63:
        5e:95:9c:68:df:72:92:f4:d2:d2:f3:ed:b8:dc:37:e3:a8:dd:
        f5:02:20:4d:ef:da:33:f0:6a:6c:da:68:08:f6:7f:e8:2f:63:
        22:80:5f:83:5a:c2:d6:40:72:96:1c:5d:9b:fd:33:f1:82
-----BEGIN CERTIFICATE-----
MIIBgzCCASmgAwIBAgIKK1nrSJINO/UJbjAKBggqhkjOPQQDAjAwMRIwEAYDVQQD
EwlTSEFLRU4gQ0ExDTALBgNVBAoTBEFUSVMxCzAJBgNVBAYTAlVTMB4XDTIxMDcy
NjIyMDAwMFoXDTIyMDcyNjIyMDAwMFowMjEUMBIGA1UEAxMLU0hBS0VOIExlYWYx
DTALBgNVBAoTBEFUSVMxCzAJBgNVBAYTAlVTMFkwEwYHKoZIzj0CAQYIKoZIzj0D
AQcDQgAExFJIOf5GiU7L8zjuHdALXmYD+9zAbaHrLXA3a1Up3amkYh4kxdFdfbRc
mOJKMFAsH2SDR7iXJIhhG4vono2fpaMpMCcwDAYDVR0TAQH/BAIwADAXBgNVHSAE
EDAOMAwGCmCGSAGG/wkBAQIwCgYIKoZIzj0EAwIDSAAwRQIhAK+Sl3UZLey5Ogda
jmNelZxo33KS9NLS8+243DfjqN31AiBN79oz8Gps2mgI9n/oL2MigF+DWsLWQHKW
HF2b/TPxgg==
-----END CERTIFICATE-----