Certificate:
    Data:
        Version: 3 (0x2)
        Serial Number:
            79:38:7c:a1:17:79:61:3a:07:0f
    Signature Algorithm: ecdsa-with-SHA256
        Issuer: CN=SHAKEN Intermediate, O=Some org, C=US
        Validity
            Not Before: Oct 24 21:21:08 2022 GMT
            Not After : Oct 25 21:21:08 2022 GMT
        Subject: CN=SHAKEN 6628, O=Some org/serialNumber=12345
        Subject Public Key Info:
            Public Key Algorithm: id-ecPublicKey
                Public-Key: (256 bit)
                pub: 
                    04:38:08:99:e7:96:c9:e1:aa:ec:13:c3:43:4f:ac:
                    9b:5f:b4:95:84:20:2f:05:ed:f5:f9:18:d3:b6:7f:
                    7f:d0:d7:db:cc:1f:4e:92:f6:fa:63:47:c1:4e:f1:
                    b2:d0:9a:d2:36:c7:75:c4:5f:b8:f5:5e:72:e0:4e:
                    7d:aa:4f:63:83
                ASN1 OID: prime256v1
                NIST CURVE: P-256
        X509v3 extensions:
            X509v3 Basic Constraints: critical
                CA:FALSE
            X509v3 Key Usage: critical
                Digital Signature, Data Encipherment
            X509v3 Certificate Policies: 
                Policy: 2.16.840.1.114569.1.1.3

            X509v3 Authority Key Identifier: 
                keyid:B5:1E:BC:89:BF:4F:76:34:54:64:C8:42:93:38:8F:C7:F6:BB:64:EF

            X509v3 Subject Key Identifier: 
                E1:A4:05:67:28:71:54:31:8F:9D:1E:E4:E4:C1:00:B6:62:67:D8:1C
            X509v3 CRL Distribution Points: 

                Full Name:
                  URI:http://crls.pki.goog/gts1c3/QOvJ0N1sT2A.crl

            1.3.6.1.5.5.7.1.26: 
                0.....
    Signature Algorithm: ecdsa-with-SHA256
         30:44:02:20:7e:e5:88:7d:88:6a:8f:1b:fe:1d:7a:d4:1e:35:
         2b:c0:cd:2f:ed:6b:10:44:d8:43:ea:39:28:19:9d:cf:5a:51:
         02:20:5e:d6:11:70:6b:e2:16:88:85:15:db:67:b7:4d:cc:46:
         d8:aa:d5:a1:ac:fd:97:73:0d:58:14:90:67:f4:19:ba
-----BEGIN CERTIFICATE-----
MIICOzCCAeKgAwIBAgIKeTh8oRd5YToHDzAKBggqhkjOPQQDAjA+MRwwGgYDVQQD
ExNTSEFLRU4gSW50ZXJtZWRpYXRlMREwDwYDVQQKEwhTb21lIG9yZzELMAkGA1UE
BhMCVVMwHhcNMjIxMDI0MjEyMTA4WhcNMjIxMDI1MjEyMTA4WjA5MRQwEgYDVQQD
EwtTSEFLRU4gNjYyODERMA8GA1UEChMIU29tZSBvcmcxDjAMBgNVBAUTBTEyMzQ1
MFkwEwYHKoZIzj0CAQYIKoZIzj0DAQcDQgAEOAiZ55bJ4arsE8NDT6ybX7SVhCAv
Be31+RjTtn9/0NfbzB9Okvb6Y0fBTvGy0JrSNsd1xF+49V5y4E59qk9jg6OBzDCB
yTAMBgNVHRMBAf8EAjAAMA4GA1UdDwEB/wQEAwIEkDAXBgNVHSAEEDAOMAwGCmCG
SAGG/wkBAQMwHwYDVR0jBBgwFoAUtR68ib9PdjRUZMhCkziPx/a7ZO8wHQYDVR0O
BBYEFOGkBWcocVQxj50e5OTBALZiZ9gcMDwGA1UdHwQ1MDMwMaAvoC2GK2h0dHA6
Ly9jcmxzLnBraS5nb29nL2d0czFjMy9RT3ZKME4xc1QyQS5jcmwwEgYIKwYBBQUH
ARoEBjAEoAIWADAKBggqhkjOPQQDAgNHADBEAiB+5Yh9iGqPG/4detQeNSvAzS/t
axBE2EPqOSgZnc9aUQIgXtYRcGviFoiFFdtnt03MRtiq1aGs/ZdzDVgUkGf0Gbo=
-----END CERTIFICATE-----
