Certificate:
    Data:
        Version: 3 (0x2)
        Serial Number:
            70:68:8c:05:e7:43:61:39:90:08
    Signature Algorithm: ecdsa-with-SHA256
        Issuer: CN=SHAKEN Intermediate, O=Some org, C=US
        Validity
            Not Before: Oct 24 18:59:11 2022 GMT
            Not After : Oct 25 18:59:11 2022 GMT
        Subject: CN=SHAKEN 6628, O=Some org, C=US/serialNumber=12345
        Subject Public Key Info:
            Public Key Algorithm: id-ecPublicKey
                Public-Key: (256 bit)
                pub: 
                    04:6a:35:4c:ed:bc:9d:46:e9:ee:b4:b5:91:8b:45:
                    7b:23:ea:57:b0:cf:24:02:33:86:0d:af:b3:8b:3a:
                    61:e4:fb:16:8a:d7:10:df:7f:ac:5e:27:8e:49:ec:
                    63:85:c4:06:e5:79:85:22:b7:4c:eb:99:9d:f8:95:
                    04:70:2b:79:12
                ASN1 OID: prime256v1
                NIST CURVE: P-256
        X509v3 extensions:
            X509v3 Basic Constraints: critical
                CA:FALSE
            X509v3 Key Usage: 
                Digital Signature
            X509v3 Certificate Policies: 
                Policy: 2.16.840.1.114569.1.1.3
                Policy: 2.16.840.1.114569.1.1.1

            X509v3 Authority Key Identifier: 
                keyid:D3:DC:CD:2B:4B:EF:0D:49:AC:E5:32:A8:2D:5E:6D:07:96:86:8A:F7

            X509v3 Subject Key Identifier: 
                83:00:2F:36:A7:6F:50:83:BE:14:BB:1E:C6:56:61:28:7A:EA:CB:08
            X509v3 CRL Distribution Points: 

                Full Name:
                  URI:https://authenticate-api.iconectiv.com/download/v1/crl

            1.3.6.1.5.5.7.1.26: 
                0.....6628
    Signature Algorithm: ecdsa-with-SHA256
         30:44:02:20:3a:8a:7a:7e:de:00:76:49:ea:dc:cb:41:4d:8a:
         14:9d:ff:cd:00:c6:1e:e0:46:f7:55:9f:c3:b9:bc:0a:a4:e6:
         02:20:7b:2f:30:37:68:c2:03:b3:18:30:0f:38:a7:ac:1e:80:
         46:cc:9c:24:62:63:4e:46:86:d6:d2:77:84:fa:05:3b
-----BEGIN CERTIFICATE-----
MIICYjCCAgmgAwIBAgIKcGiMBedDYTmQCDAKBggqhkjOPQQDAjA+MRwwGgYDVQQD
ExNTSEFLRU4gSW50ZXJtZWRpYXRlMREwDwYDVQQKEwhTb21lIG9yZzELMAkGA1UE
BhMCVVMwHhcNMjIxMDI0MTg1OTExWhcNMjIxMDI1MTg1OTExWjBGMRQwEgYDVQQD
EwtTSEFLRU4gNjYyODERMA8GA1UEChMIU29tZSBvcmcxCzAJBgNVBAYTAlVTMQ4w
DAYDVQQFEwUxMjM0NTBZMBMGByqGSM49AgEGCCqGSM49AwEHA0IABGo1TO28nUbp
7rS1kYtFeyPqV7DPJAIzhg2vs4s6YeT7ForXEN9/rF4njknsY4XEBuV5hSK3TOuZ
nfiVBHAreRKjgeYwgeMwDAYDVR0TAQH/BAIwADALBgNVHQ8EBAMCB4AwJQYDVR0g
BB4wHDAMBgpghkgBhv8JAQEDMAwGCmCGSAGG/wkBAQEwHwYDVR0jBBgwFoAU09zN
K0vvDUms5TKoLV5tB5aGivcwHQYDVR0OBBYEFIMALzanb1CDvhS7HsZWYSh66ssI
MEcGA1UdHwRAMD4wPKA6oDiGNmh0dHBzOi8vYXV0aGVudGljYXRlLWFwaS5pY29u
ZWN0aXYuY29tL2Rvd25sb2FkL3YxL2NybDAWBggrBgEFBQcBGgQKMAigBhYENjYy
ODAKBggqhkjOPQQDAgNHADBEAiA6inp+3gB2Sercy0FNihSd/80Axh7gRvdVn8O5
vAqk5gIgey8wN2jCA7MYMA84p6wegEbMnCRiY05GhtbSd4T6BTs=
-----END CERTIFICATE-----
