Certificate:
    Data:
        Version: 3 (0x2)
        Serial Number:
            65:38:81:f7:5d:b7:a1:49:bd:db
    Signature Algorithm: ecdsa-with-SHA256
        Issuer: CN=SHAKEN Intermediate, O=Some org, C=US
        Validity
            Not Before: Oct 24 21:11:52 2022 GMT
            Not After : Oct 25 21:11:52 2022 GMT
        Subject: CN=SHAKEN 6628, O=Some org/serialNumber=12345
        Subject Public Key Info:
            Public Key Algorithm: id-ecPublicKey
                Public-Key: (256 bit)
                pub: 
                    04:f7:21:ab:91:3d:5a:ec:88:bf:4e:a6:c3:cf:29:
                    bc:cc:8e:4b:36:f2:ab:6c:4c:8b:cf:4c:6e:c7:35:
                    a6:50:0a:01:87:0e:f0:e6:62:c3:d8:b4:2c:97:96:
                    72:65:6f:e2:ad:45:f5:f2:64:83:a3:8f:41:d1:03:
                    79:61:3d:d9:76
                ASN1 OID: prime256v1
                NIST CURVE: P-256
        X509v3 extensions:
            X509v3 Basic Constraints: critical
                CA:FALSE
            X509v3 Key Usage: critical
                Digital Signature, Data Encipherment
            X509v3 Certificate Policies: 
                Policy: 2.16.840.1.114569.1.1.3

            X509v3 Authority Key Identifier: 
                keyid:DF:C5:27:78:3F:67:15:51:C4:65:B1:7B:AB:D0:2E:7E:BD:5A:46:72

            X509v3 Subject Key Identifier: 
                DB:34:99:12:1F:7A:B0:21:72:60:76:25:D8:27:B4:E9:97:61:6B:2C
            X509v3 CRL Distribution Points: 

                Full Name:
                  URI:http://crls.pki.goog/gts1c3/QOvJ0N1sT2A.crl

            1.3.6.1.5.5.7.1.26: 
                0.....1234
    Signature Algorithm: ecdsa-with-SHA256
         30:45:02:21:00:db:a3:b5:19:a8:ed:7f:25:39:0b:c6:4d:db:
         b2:ec:d3:cc:b3:d0:6a:22:10:ed:59:5c:b0:74:d4:9e:56:dc:
         bc:02:20:6f:ef:9f:93:81:18:d4:b6:f0:eb:40:07:f2:c0:50:
         cf:2e:78:b1:15:f5:e9:91:75:83:af:de:31:e2:ee:cf:6a
-----BEGIN CERTIFICATE-----
MIICQDCCAeagAwIBAgIKZTiB9123oUm92zAKBggqhkjOPQQDAjA+MRwwGgYDVQQD
ExNTSEFLRU4gSW50ZXJtZWRpYXRlMREwDwYDVQQKEwhTb21lIG9yZzELMAkGA1UE
BhMCVVMwHhcNMjIxMDI0MjExMTUyWhcNMjIxMDI1MjExMTUyWjA5MRQwEgYDVQQD
EwtTSEFLRU4gNjYyODERMA8GA1UEChMIU29tZSBvcmcxDjAMBgNVBAUTBTEyMzQ1
MFkwEwYHKoZIzj0CAQYIKoZIzj0DAQcDQgAE9yGrkT1a7Ii/TqbDzym8zI5LNvKr
bEyLz0xuxzWmUAoBhw7w5mLD2LQsl5ZyZW/irUX18mSDo49B0QN5YT3ZdqOB0DCB
zTAMBgNVHRMBAf8EAjAAMA4GA1UdDwEB/wQEAwIEkDAXBgNVHSAEEDAOMAwGCmCG
SAGG/wkBAQMwHwYDVR0jBBgwFoAU38UneD9nFVHEZbF7q9Aufr1aRnIwHQYDVR0O
BBYEFNs0mRIferAhcmB2JdgntOmXYWssMDwGA1UdHwQ1MDMwMaAvoC2GK2h0dHA6
Ly9jcmxzLnBraS5nb29nL2d0czFjMy9RT3ZKME4xc1QyQS5jcmwwFgYIKwYBBQUH
ARoECjAIogYWBDEyMzQwCgYIKoZIzj0EAwIDSAAwRQIhANujtRmo7X8lOQvGTduy
7NPMs9BqIhDtWVywdNSeVty8AiBv75+TgRjUtvDrQAfywFDPLnixFfXpkXWDr94x
4u7Pag==
-----END CERTIFICATE-----
