Certificate:
    Data:
        Version: 3 (0x2)
        Serial Number:
            37:aa:7e:be:08:19:1d:05:4b:3a
    Signature Algorithm: ecdsa-with-SHA256
        Issuer: CN=SHAKEN Root, O=Some org
        Validity
            Not Before: Oct 25 15:53:09 2022 GMT
            Not After : Oct 26 15:53:09 2022 GMT
        Subject: CN=SHAKEN Intermediate, O=Some org, C=US
        Subject Public Key Info:
            Public Key Algorithm: id-ecPublicKey
                Public-Key: (256 bit)
                pub: 
                    04:6b:e0:ad:99:f6:54:ec:79:ed:4d:4e:6a:06:2a:
                    74:64:6b:21:93:a5:bd:c0:53:a8:a2:cb:52:b3:05:
                    0a:01:8e:77:71:47:02:f9:fb:f6:37:fe:d8:08:81:
                    d9:84:23:eb:36:bf:31:a4:a3:7b:a9:7c:59:19:2d:
                    2c:8d:0a:33:a7
                ASN1 OID: prime256v1
                NIST CURVE: P-256
        X509v3 extensions:
            X509v3 Basic Constraints: critical
                CA:TRUE
            X509v3 Key Usage: critical
                Certificate Sign
            X509v3 Certificate Policies: 
                Policy: 2.16.840.1.114569.1.1.3

            X509v3 Authority Key Identifier: 
                keyid:51:DB:7C:31:89:2B:DF:97:D8:E3:4C:AC:BA:6A:63:4A:67:B3:7C:22

            X509v3 Subject Key Identifier: 
                D6:7E:4B:B7:9C:C9:B7:A0:3A:84:C2:23:35:46:DF:AA:58:E1:18:88
            X509v3 CRL Distribution Points: 

                Full Name:
                  URI:http://crls.pki.goog/gts1c3/QOvJ0N1sT2A.crl

    Signature Algorithm: ecdsa-with-SHA256
         30:44:02:20:6b:53:65:d2:08:10:a4:6d:c3:d3:23:07:4c:ce:
         e9:f9:19:36:b0:10:34:7e:36:8f:12:67:c8:6d:09:38:45:76:
         02:20:44:2d:dc:fb:54:0a:44:3b:0f:08:8d:fe:78:48:9b:c9:
         85:8d:8d:78:a9:b2:03:3d:40:f4:3f:7b:2a:0f:fe:45
-----BEGIN CERTIFICATE-----
MIICGjCCAcGgAwIBAgIKN6p+vggZHQVLOjAKBggqhkjOPQQDAjApMRQwEgYDVQQD
EwtTSEFLRU4gUm9vdDERMA8GA1UEChMIU29tZSBvcmcwHhcNMjIxMDI1MTU1MzA5
WhcNMjIxMDI2MTU1MzA5WjA+MRwwGgYDVQQDExNTSEFLRU4gSW50ZXJtZWRpYXRl
MREwDwYDVQQKEwhTb21lIG9yZzELMAkGA1UEBhMCVVMwWTATBgcqhkjOPQIBBggq
hkjOPQMBBwNCAARr4K2Z9lTsee1NTmoGKnRkayGTpb3AU6iiy1KzBQoBjndxRwL5
+/Y3/tgIgdmEI+s2vzGko3upfFkZLSyNCjOno4G7MIG4MA8GA1UdEwEB/wQFMAMB
Af8wDgYDVR0PAQH/BAQDAgIEMBcGA1UdIAQQMA4wDAYKYIZIAYb/CQEBAzAfBgNV
HSMEGDAWgBRR23wxiSvfl9jjTKy6amNKZ7N8IjAdBgNVHQ4EFgQU1n5Lt5zJt6A6
hMIjNUbfqljhGIgwPAYDVR0fBDUwMzAxoC+gLYYraHR0cDovL2NybHMucGtpLmdv
b2cvZ3RzMWMzL1FPdkowTjFzVDJBLmNybDAKBggqhkjOPQQDAgNHADBEAiBrU2XS
CBCkbcPTIwdMzun5GTawEDR+No8SZ8htCThFdgIgRC3c+1QKRDsPCI3+eEibyYWN
jXipsgM9QPQ/eyoP/kU=
-----END CERTIFICATE-----
