Certificate:
    Data:
        Version: 3 (0x2)
        Serial Number:
            10:9e:33:f5:d8:ba:5b:be:bd:a2
    Signature Algorithm: ecdsa-with-SHA256
        Issuer: CN=SHAKEN Root, O=Some org, C=US
        Validity
            Not Before: Oct 24 22:07:41 2022 GMT
            Not After : Oct 25 22:07:41 2022 GMT
        Subject: CN=SHAKEN Root, O=Some org, C=US
        Subject Public Key Info:
            Public Key Algorithm: id-ecPublicKey
                Public-Key: (256 bit)
                pub: 
                    04:dd:4f:83:c1:20:8f:db:58:7f:b8:9f:57:fa:12:
                    d0:4d:95:98:7a:88:ae:5f:77:66:e5:0d:1f:93:cc:
                    63:c4:16:0d:94:8c:00:fd:79:73:a0:51:dd:43:f1:
                    b6:40:d3:73:ed:07:50:2c:66:2c:07:86:a9:8a:dc:
                    5f:9b:0f:da:73
                ASN1 OID: prime256v1
                NIST CURVE: P-256
        X509v3 extensions:
            X509v3 Basic Constraints: critical
                CA:TRUE
            X509v3 Key Usage: critical
                Certificate Sign
            X509v3 Certificate Policies: 
                Policy: 2.16.840.1.114569.1.1.3

            X509v3 Authority Key Identifier: 
                keyid:1C:31:C8:AA:3C:0F:BE:4A:7A:16:89:E1:3D:9C:5D:A4:E5:2A:3E:F8

            X509v3 Subject Key Identifier: 
                8C:A9:EE:09:28:E4:1E:00:66:A4:7B:AC:A1:D0:5F:E6:5B:27:C8:BF
            X509v3 Extended Key Usage: 
                1.2.3.4.5
    Signature Algorithm: ecdsa-with-SHA256
         30:45:02:20:1f:6b:02:80:30:14:f0:f9:82:da:4c:b1:b7:21:
         82:36:83:48:25:17:bc:37:6f:e6:58:4b:a3:89:f4:83:8a:52:
         02:21:00:dd:17:ea:30:60:5d:84:64:ae:31:01:63:76:11:b7:
         e3:0a:e0:cb:70:89:d5:d9:22:02:05:2b:07:34:b4:f5:74
-----BEGIN CERTIFICATE-----
MIIB8zCCAZmgAwIBAgIKEJ4z9di6W769ojAKBggqhkjOPQQDAjA2MRQwEgYDVQQD
EwtTSEFLRU4gUm9vdDERMA8GA1UEChMIU29tZSBvcmcxCzAJBgNVBAYTAlVTMB4X
DTIyMTAyNDIyMDc0MVoXDTIyMTAyNTIyMDc0MVowNjEUMBIGA1UEAxMLU0hBS0VO
IFJvb3QxETAPBgNVBAoTCFNvbWUgb3JnMQswCQYDVQQGEwJVUzBZMBMGByqGSM49
AgEGCCqGSM49AwEHA0IABN1Pg8Egj9tYf7ifV/oS0E2VmHqIrl93ZuUNH5PMY8QW
DZSMAP15c6BR3UPxtkDTc+0HUCxmLAeGqYrcX5sP2nOjgY4wgYswDwYDVR0TAQH/
BAUwAwEB/zAOBgNVHQ8BAf8EBAMCAgQwFwYDVR0gBBAwDjAMBgpghkgBhv8JAQED
MB8GA1UdIwQYMBaAFBwxyKo8D75KehaJ4T2cXaTlKj74MB0GA1UdDgQWBBSMqe4J
KOQeAGake6yh0F/mWyfIvzAPBgNVHSUECDAGBgQqAwQFMAoGCCqGSM49BAMCA0gA
MEUCIB9rAoAwFPD5gtpMsbchgjaDSCUXvDdv5lhLo4n0g4pSAiEA3RfqMGBdhGSu
MQFjdhG34wrgy3CJ1dkiAgUrBzS09XQ=
-----END CERTIFICATE-----
