Certificate:
    Data:
        Version: 3 (0x2)
        Serial Number:
            73:2b:72:45:20:9d:34:6d:c7:4b
    Signature Algorithm: ecdsa-with-SHA256
        Issuer: CN=SHAKEN Intermediate, O=Some org, C=US
        Validity
            Not Before: Oct 24 21:16:16 2022 GMT
            Not After : Oct 25 21:16:16 2022 GMT
        Subject: CN=SHAKEN 6628, O=Some org/serialNumber=12345
        Subject Public Key Info:
            Public Key Algorithm: id-ecPublicKey
                Public-Key: (256 bit)
                pub: 
                    04:2d:dd:82:05:3d:90:a8:f3:9a:88:e8:5b:18:64:
                    04:1b:e9:7b:33:94:eb:88:8f:04:f8:7b:65:b2:61:
                    f6:1e:5d:8f:e7:24:45:f1:1a:1d:28:03:42:05:fb:
                    7c:fb:c8:a2:81:85:53:b5:90:77:d8:59:36:7b:ff:
                    0f:54:03:a6:ad
                ASN1 OID: prime256v1
                NIST CURVE: P-256
        X509v3 extensions:
            X509v3 Basic Constraints: critical
                CA:FALSE
            X509v3 Key Usage: critical
                Digital Signature, Data Encipherment
            X509v3 Certificate Policies: 
                Policy: 2.16.840.1.114569.1.1.3

            X509v3 Authority Key Identifier: 
                keyid:25:CB:DD:DD:E7:C9:77:B2:FC:72:CC:94:5E:B8:1E:28:E4:77:BE:EA

            X509v3 Subject Key Identifier: 
                DB:D9:1A:86:35:8D:A6:07:43:FA:C3:FD:41:E7:89:4B:28:37:67:B3
            X509v3 CRL Distribution Points: 

                Full Name:
                  URI:http://crls.pki.goog/gts1c3/QOvJ0N1sT2A.crl

            1.3.6.1.5.5.7.1.26: 
                0.
    Signature Algorithm: ecdsa-with-SHA256
         30:46:02:21:00:ac:ec:ca:e3:7c:ac:ac:04:44:08:fb:ee:83:
         be:c9:bf:4c:44:c2:1e:a0:c9:d7:b1:49:80:f3:e0:2e:b7:1a:
         9e:02:21:00:95:22:14:3e:cf:ec:44:d3:24:98:91:e2:1f:24:
         fe:6a:14:bd:51:cd:28:41:18:ce:ef:0f:bd:90:56:e7:99:87
-----BEGIN CERTIFICATE-----
MIICOTCCAd6gAwIBAgIKcytyRSCdNG3HSzAKBggqhkjOPQQDAjA+MRwwGgYDVQQD
ExNTSEFLRU4gSW50ZXJtZWRpYXRlMREwDwYDVQQKEwhTb21lIG9yZzELMAkGA1UE
BhMCVVMwHhcNMjIxMDI0MjExNjE2WhcNMjIxMDI1MjExNjE2WjA5MRQwEgYDVQQD
EwtTSEFLRU4gNjYyODERMA8GA1UEChMIU29tZSBvcmcxDjAMBgNVBAUTBTEyMzQ1
MFkwEwYHKoZIzj0CAQYIKoZIzj0DAQcDQgAELd2CBT2QqPOaiOhbGGQEG+l7M5Tr
iI8E+HtlsmH2Hl2P5yRF8RodKANCBft8+8iigYVTtZB32Fk2e/8PVAOmraOByDCB
xTAMBgNVHRMBAf8EAjAAMA4GA1UdDwEB/wQEAwIEkDAXBgNVHSAEEDAOMAwGCmCG
SAGG/wkBAQMwHwYDVR0jBBgwFoAUJcvd3efJd7L8csyUXrgeKOR3vuowHQYDVR0O
BBYEFNvZGoY1jaYHQ/rD/UHniUsoN2ezMDwGA1UdHwQ1MDMwMaAvoC2GK2h0dHA6
Ly9jcmxzLnBraS5nb29nL2d0czFjMy9RT3ZKME4xc1QyQS5jcmwwDgYIKwYBBQUH
ARoEAjAAMAoGCCqGSM49BAMCA0kAMEYCIQCs7MrjfKysBEQI++6Dvsm/TETCHqDJ
17FJgPPgLrcangIhAJUiFD7P7ETTJJiR4h8k/moUvVHNKEEYzu8PvZBW55mH
-----END CERTIFICATE-----
