Certificate:
    Data:
        Version: 3 (0x2)
        Serial Number: 36028797018963969 (0x80000000000001)
    Signature Algorithm: ecdsa-with-SHA256
        Issuer: CN=SHAKEN Intermediate, O=Some org, C=US
        Validity
            Not Before: Oct 24 20:06:50 2022 GMT
            Not After : Oct 25 20:06:50 2022 GMT
        Subject: CN=SHAKEN 6628, O=Some org, C=US/serialNumber=12345
        Subject Public Key Info:
            Public Key Algorithm: id-ecPublicKey
                Public-Key: (256 bit)
                pub: 
                    04:57:9e:d7:14:20:21:c6:3a:f8:8f:92:21:4c:75:
                    c6:23:3b:d1:48:e3:4e:86:89:c2:18:ca:c1:77:8c:
                    8a:69:c0:f9:f1:f5:7f:d7:cb:e3:56:4d:7f:a1:5b:
                    ce:c2:a6:50:af:fd:d9:8c:32:12:e4:b9:7d:a6:43:
                    d0:df:a3:b4:5f
                ASN1 OID: prime256v1
                NIST CURVE: P-256
        X509v3 extensions:
            X509v3 Basic Constraints: critical
                CA:FALSE
            X509v3 Key Usage: critical
                Digital Signature, Data Encipherment
            X509v3 Certificate Policies: 
                Policy: 2.16.840.1.114569.1.1.3

            X509v3 Authority Key Identifier: 
                keyid:57:AB:60:43:29:B8:E2:6B:53:D6:C7:50:98:A6:69:6F:93:31:5C:12

            X509v3 Subject Key Identifier: 
                C1:DA:D8:85:6E:36:38:72:B6:DA:3B:98:84:03:1D:EE:E4:BD:24:35
            X509v3 CRL Distribution Points: 

                Full Name:
                  URI:http://crls.pki.goog/gts1c3/QOvJ0N1sT2A.crl

            1.3.6.1.5.5.7.1.26: 
                0.....6628
    Signature Algorithm: ecdsa-with-SHA256
         30:46:02:21:00:99:3f:d3:74:25:29:26:92:8a:d4:25:cf:0e:
         cf:a0:43:a2:50:b8:31:e9:05:c1:4d:0b:90:f9:01:ad:e0:a4:
         52:02:21:00:cf:5c:ca:fd:56:ae:85:46:41:f9:f7:8a:3b:2b:
         a7:77:92:d8:f1:f4:17:8f:f3:c2:44:8a:1a:3b:51:19:b4:0d
-----BEGIN CERTIFICATE-----
MIICTDCCAfGgAwIBAgIIAIAAAAAAAAEwCgYIKoZIzj0EAwIwPjEcMBoGA1UEAxMT
U0hBS0VOIEludGVybWVkaWF0ZTERMA8GA1UEChMIU29tZSBvcmcxCzAJBgNVBAYT
AlVTMB4XDTIyMTAyNDIwMDY1MFoXDTIyMTAyNTIwMDY1MFowRjEUMBIGA1UEAxML
U0hBS0VOIDY2MjgxETAPBgNVBAoTCFNvbWUgb3JnMQswCQYDVQQGEwJVUzEOMAwG
A1UEBRMFMTIzNDUwWTATBgcqhkjOPQIBBggqhkjOPQMBBwNCAARXntcUICHGOviP
kiFMdcYjO9FI406GicIYysF3jIppwPnx9X/Xy+NWTX+hW87CplCv/dmMMhLkuX2m
Q9Dfo7Rfo4HQMIHNMAwGA1UdEwEB/wQCMAAwDgYDVR0PAQH/BAQDAgSQMBcGA1Ud
IAQQMA4wDAYKYIZIAYb/CQEBAzAfBgNVHSMEGDAWgBRXq2BDKbjia1PWx1CYpmlv
kzFcEjAdBgNVHQ4EFgQUwdrYhW42OHK22juYhAMd7uS9JDUwPAYDVR0fBDUwMzAx
oC+gLYYraHR0cDovL2NybHMucGtpLmdvb2cvZ3RzMWMzL1FPdkowTjFzVDJBLmNy
bDAWBggrBgEFBQcBGgQKMAigBhYENjYyODAKBggqhkjOPQQDAgNJADBGAiEAmT/T
dCUpJpKK1CXPDs+gQ6JQuDHpBcFNC5D5Aa3gpFICIQDPXMr9Vq6FRkH594o7K6d3
ktjx9BeP88JEiho7URm0DQ==
-----END CERTIFICATE-----
