Certificate:
    Data:
        Version: 3 (0x2)
        Serial Number:
            4a:37:57:17:bd:bb:04:05:af:9d
    Signature Algorithm: ecdsa-with-SHA256
        Issuer: CN=SHAKEN Intermediate
        Validity
            Not Before: Oct 24 10:55:29 2022 GMT
            Not After : Oct 25 10:55:29 2022 GMT
        Subject: CN=Some SHAKEN 6628
        Subject Public Key Info:
            Public Key Algorithm: id-ecPublicKey
                Public-Key: (256 bit)
                pub: 
                    04:62:ac:ac:27:7f:fe:43:f8:eb:d3:9c:ad:78:2e:
                    f8:48:f6:65:90:04:66:df:44:73:21:28:98:3b:5d:
                    a4:90:9d:91:eb:56:8b:1d:b4:9a:53:8e:fe:d6:f7:
                    cf:31:32:e4:f5:b8:2a:fe:c7:55:c9:cb:ed:0a:48:
                    f7:47:58:d4:f0
                ASN1 OID: prime256v1
                NIST CURVE: P-256
        X509v3 extensions:
            X509v3 Basic Constraints: critical
                CA:FALSE
            1.3.6.1.5.5.7.1.26: 
                0.....6628
    Signature Algorithm: ecdsa-with-SHA256
         30:46:02:21:00:85:4d:30:8b:0a:3f:d4:74:6e:a5:d0:1f:74:
         55:74:fb:9b:32:bb:9b:8a:92:01:09:f3:3f:b2:f5:56:f7:73:
         86:02:21:00:91:da:b9:3c:71:77:be:9b:f7:44:9e:27:38:74:
         71:fd:f6:a8:80:57:38:85:5e:68:b4:4c:57:69:17:6e:b7:05
-----BEGIN CERTIFICATE-----
MIIBWTCB/6ADAgECAgpKN1cXvbsEBa+dMAoGCCqGSM49BAMCMB4xHDAaBgNVBAMT
E1NIQUtFTiBJbnRlcm1lZGlhdGUwHhcNMjIxMDI0MTA1NTI5WhcNMjIxMDI1MTA1
NTI5WjAbMRkwFwYDVQQDExBTb21lIFNIQUtFTiA2NjI4MFkwEwYHKoZIzj0CAQYI
KoZIzj0DAQcDQgAEYqysJ3/+Q/jr05yteC74SPZlkARm30RzISiYO12kkJ2R61aL
HbSaU47+1vfPMTLk9bgq/sdVycvtCkj3R1jU8KMoMCYwDAYDVR0TAQH/BAIwADAW
BggrBgEFBQcBGgQKMAigBhYENjYyODAKBggqhkjOPQQDAgNJADBGAiEAhU0wiwo/
1HRupdAfdFV0+5syu5uKkgEJ8z+y9Vb3c4YCIQCR2rk8cXe+m/dEnic4dHH99qiA
VziFXmi0TFdpF263BQ==
-----END CERTIFICATE-----
