Certificate:
    Data:
        Version: 3 (0x2)
        Serial Number:
            14:2f:7a:09:25:67:d8:73:bc:fa
    Signature Algorithm: ecdsa-with-SHA256
        Issuer: CN=SHAKEN Root, O=Some org, C=US
        Validity
            Not Before: Oct 25 15:58:26 2022 GMT
            Not After : Oct 26 15:58:26 2022 GMT
        Subject: CN=SHAKEN Intermediate, O=Some org, C=US
        Subject Public Key Info:
            Public Key Algorithm: id-ecPublicKey
                Public-Key: (256 bit)
                pub: 
                    04:cd:6e:0d:e6:66:e6:27:b4:fe:a2:98:45:42:8a:
                    16:9f:59:96:1c:e7:de:6f:ce:1d:15:93:36:be:c6:
                    7d:bb:a8:bd:fe:1f:76:56:88:90:71:8f:6e:08:73:
                    52:43:9b:56:b9:5e:f7:19:46:77:a9:f8:ce:ee:8c:
                    c9:f2:d2:db:7d
                ASN1 OID: prime256v1
                NIST CURVE: P-256
        X509v3 extensions:
            X509v3 Basic Constraints: critical
                CA:TRUE
            X509v3 Key Usage: critical
                Digital Signature, Certificate Sign, CRL Sign
            X509v3 Certificate Policies: 
                Policy: 2.16.840.1.114569.1.1.3

            X509v3 Authority Key Identifier: 
                keyid:E4:55:75:4B:14:23:AA:3B:64:AE:93:D9:5D:8D:C0:33:B5:A0:E3:70

            X509v3 Subject Key Identifier: 
                A1:8D:15:05:28:C1:8A:02:14:08:7F:C7:9C:62:B7:CE:26:9B:EF:15
            X509v3 CRL Distribution Points: 

                Full Name:
                  URI:http://crls.pki.goog/gts1c3/QOvJ0N1sT2A.crl

    Signature Algorithm: ecdsa-with-SHA256
         30:44:02:20:03:e2:06:cc:89:8e:2f:1c:ea:4a:d1:2a:8b:d7:
         7b:ab:e9:58:84:77:8f:a4:33:56:d2:07:84:9a:8c:c8:40:1c:
         02:20:70:56:4a:58:2f:94:fa:f2:78:31:ec:0a:64:b4:ca:ae:
         ea:f6:6e:30:c9:f9:0f:4f:ec:8e:c2:98:42:ae:47:07
-----BEGIN CERTIFICATE-----
MIICJzCCAc6gAwIBAgIKFC96CSVn2HO8+jAKBggqhkjOPQQDAjA2MRQwEgYDVQQD
EwtTSEFLRU4gUm9vdDERMA8GA1UEChMIU29tZSBvcmcxCzAJBgNVBAYTAlVTMB4X
DTIyMTAyNTE1NTgyNloXDTIyMTAyNjE1NTgyNlowPjEcMBoGA1UEAxMTU0hBS0VO
IEludGVybWVkaWF0ZTERMA8GA1UEChMIU29tZSBvcmcxCzAJBgNVBAYTAlVTMFkw
EwYHKoZIzj0CAQYIKoZIzj0DAQcDQgAEzW4N5mbmJ7T+ophFQooWn1mWHOfeb84d
FZM2vsZ9u6i9/h92VoiQcY9uCHNSQ5tWuV73GUZ3qfjO7ozJ8tLbfaOBuzCBuDAP
BgNVHRMBAf8EBTADAQH/MA4GA1UdDwEB/wQEAwIBhjAXBgNVHSAEEDAOMAwGCmCG
SAGG/wkBAQMwHwYDVR0jBBgwFoAU5FV1SxQjqjtkrpPZXY3AM7Wg43AwHQYDVR0O
BBYEFKGNFQUowYoCFAh/x5xit84mm+8VMDwGA1UdHwQ1MDMwMaAvoC2GK2h0dHA6
Ly9jcmxzLnBraS5nb29nL2d0czFjMy9RT3ZKME4xc1QyQS5jcmwwCgYIKoZIzj0E
AwIDRwAwRAIgA+IGzImOLxzqStEqi9d7q+lYhHePpDNW0geEmozIQBwCIHBWSlgv
lPryeDHsCmS0yq7q9m4wyfkPT+yOwphCrkcH
-----END CERTIFICATE-----
