Certificate:
    Data:
        Version: 3 (0x2)
        Serial Number:
            33:e1:22:ad:48:aa:0d:f3:18:2b
    Signature Algorithm: ecdsa-with-SHA256
        Issuer: CN=SHAKEN Intermediate, O=Some org, C=US
        Validity
            Not Before: Oct 24 18:18:41 2022 GMT
            Not After : Oct 25 18:18:41 2022 GMT
        Subject: CN=SHAKEN 6628, O=Some org, C=US/serialNumber=12345
        Subject Public Key Info:
            Public Key Algorithm: id-ecPublicKey
                Public-Key: (256 bit)
                pub: 
                    04:53:f4:36:ba:23:ee:10:fa:c5:b5:df:e2:dd:66:
                    cc:d8:ef:ab:80:51:37:4c:7a:bc:4c:63:34:a8:a2:
                    62:b6:f8:4f:13:c8:2b:a1:b2:25:4f:73:fa:fc:75:
                    13:fe:37:d3:ce:cd:12:bf:25:7e:7c:d5:85:c0:9b:
                    b1:f1:0d:b4:e1
                ASN1 OID: prime256v1
                NIST CURVE: P-256
        X509v3 extensions:
            X509v3 Basic Constraints: critical
                CA:FALSE
            X509v3 Key Usage: 
                Digital Signature
            X509v3 Authority Key Identifier: 
                keyid:FE:54:40:2F:3B:26:1A:23:B4:1B:18:B6:67:1E:AC:91:E5:09:D2:3C

            X509v3 Subject Key Identifier: 
                0D:AD:F1:C3:28:29:EB:47:66:AB:34:46:C3:37:31:68:2B:92:23:1B
            X509v3 CRL Distribution Points: 

                Full Name:
                  URI:https://authenticate-api.iconectiv.com/download/v1/crl

            1.3.6.1.5.5.7.1.26: 
                0.....6628
    Signature Algorithm: ecdsa-with-SHA256
         30:46:02:21:00:a9:61:4e:c5:50:75:a5:ff:29:2e:c3:55:87:
         b1:1b:06:71:c6:16:12:db:2c:ec:f9:f7:02:56:0f:ed:aa:d9:
         9e:02:21:00:a3:f7:bd:67:b8:d0:be:ac:f8:ce:be:28:6b:83:
         4f:91:34:78:20:eb:0a:e2:a1:2c:92:f3:ab:d8:06:9d:ca:9a
-----BEGIN CERTIFICATE-----
MIICPTCCAeKgAwIBAgIKM+EirUiqDfMYKzAKBggqhkjOPQQDAjA+MRwwGgYDVQQD
ExNTSEFLRU4gSW50ZXJtZWRpYXRlMREwDwYDVQQKEwhTb21lIG9yZzELMAkGA1UE
BhMCVVMwHhcNMjIxMDI0MTgxODQxWhcNMjIxMDI1MTgxODQxWjBGMRQwEgYDVQQD
EwtTSEFLRU4gNjYyODERMA8GA1UEChMIU29tZSBvcmcxCzAJBgNVBAYTAlVTMQ4w
DAYDVQQFEwUxMjM0NTBZMBMGByqGSM49AgEGCCqGSM49AwEHA0IABFP0Nroj7hD6
xbXf4t1mzNjvq4BRN0x6vExjNKiiYrb4TxPIK6GyJU9z+vx1E/43087NEr8lfnzV
hcCbsfENtOGjgb8wgbwwDAYDVR0TAQH/BAIwADALBgNVHQ8EBAMCB4AwHwYDVR0j
BBgwFoAU/lRALzsmGiO0Gxi2Zx6skeUJ0jwwHQYDVR0OBBYEFA2t8cMoKetHZqs0
RsM3MWgrkiMbMEcGA1UdHwRAMD4wPKA6oDiGNmh0dHBzOi8vYXV0aGVudGljYXRl
LWFwaS5pY29uZWN0aXYuY29tL2Rvd25sb2FkL3YxL2NybDAWBggrBgEFBQcBGgQK
MAigBhYENjYyODAKBggqhkjOPQQDAgNJADBGAiEAqWFOxVB1pf8pLsNVh7EbBnHG
FhLbLOz59wJWD+2q2Z4CIQCj971nuNC+rPjOvihrg0+RNHgg6wrioSyS86vYBp3K
mg==
-----END CERTIFICATE-----
