Certificate:
    Data:
        Version: 3 (0x2)
        Serial Number: -9150748177064392952 (-0x7efdfcfbfaf9f8f8)
    Signature Algorithm: ecdsa-with-SHA256
        Issuer: CN=SHAKEN Intermediate, O=Some org, C=US
        Validity
            Not Before: Oct 24 20:00:04 2022 GMT
            Not After : Oct 25 20:00:04 2022 GMT
        Subject: CN=SHAKEN 6628, O=Some org, C=US/serialNumber=12345
        Subject Public Key Info:
            Public Key Algorithm: id-ecPublicKey
                Public-Key: (256 bit)
                pub: 
                    04:17:32:85:a1:18:58:0c:eb:a9:43:17:ca:d8:0a:
                    34:c1:51:0f:62:91:f1:41:7d:f2:79:ae:dd:a6:1d:
                    69:75:97:5e:31:43:ee:6f:c0:b1:dc:7b:05:e3:bb:
                    d9:42:47:a9:96:44:5c:41:ed:22:f9:65:0a:19:61:
                    46:e1:9d:fa:7a
                ASN1 OID: prime256v1
                NIST CURVE: P-256
        X509v3 extensions:
            X509v3 Basic Constraints: critical
                CA:FALSE
            X509v3 Key Usage: critical
                Digital Signature, Data Encipherment
            X509v3 Certificate Policies: 
                Policy: 2.16.840.1.114569.1.1.3

            X509v3 Authority Key Identifier: 
                keyid:73:AB:E4:7B:25:F3:A0:15:9D:23:01:7F:A1:DF:BC:BA:ED:50:32:56

            X509v3 Subject Key Identifier: 
                19:D8:50:FF:04:32:BF:1A:18:47:34:BB:45:6C:75:4F:86:68:38:9F
            X509v3 CRL Distribution Points: 

                Full Name:
                  URI:http://crls.pki.goog/gts1c3/QOvJ0N1sT2A.crl

            1.3.6.1.5.5.7.1.26: 
                0.....6628
    Signature Algorithm: ecdsa-with-SHA256
         30:46:02:21:00:e0:2a:51:4e:ac:35:96:af:f7:92:4f:9b:1e:
         a4:cf:ec:46:92:63:fe:0b:8c:4f:ed:f0:a6:41:2f:0f:92:8c:
         7b:02:21:00:c2:79:89:7e:f6:6d:7a:4e:64:4d:7d:7b:7d:c8:
         92:b3:fd:07:34:cc:36:20:9c:be:ba:10:5f:9a:d0:07:94:af
-----BEGIN CERTIFICATE-----
MIICTDCCAfGgAwIBAgIIgQIDBAUGBwgwCgYIKoZIzj0EAwIwPjEcMBoGA1UEAxMT
U0hBS0VOIEludGVybWVkaWF0ZTERMA8GA1UEChMIU29tZSBvcmcxCzAJBgNVBAYT
AlVTMB4XDTIyMTAyNDIwMDAwNFoXDTIyMTAyNTIwMDAwNFowRjEUMBIGA1UEAxML
U0hBS0VOIDY2MjgxETAPBgNVBAoTCFNvbWUgb3JnMQswCQYDVQQGEwJVUzEOMAwG
A1UEBRMFMTIzNDUwWTATBgcqhkjOPQIBBggqhkjOPQMBBwNCAAQXMoWhGFgM66lD
F8rYCjTBUQ9ikfFBffJ5rt2mHWl1l14xQ+5vwLHcewXju9lCR6mWRFxB7SL5ZQoZ
YUbhnfp6o4HQMIHNMAwGA1UdEwEB/wQCMAAwDgYDVR0PAQH/BAQDAgSQMBcGA1Ud
IAQQMA4wDAYKYIZIAYb/CQEBAzAfBgNVHSMEGDAWgBRzq+R7JfOgFZ0jAX+h37y6
7VAyVjAdBgNVHQ4EFgQUGdhQ/wQyvxoYRzS7RWx1T4ZoOJ8wPAYDVR0fBDUwMzAx
oC+gLYYraHR0cDovL2NybHMucGtpLmdvb2cvZ3RzMWMzL1FPdkowTjFzVDJBLmNy
bDAWBggrBgEFBQcBGgQKMAigBhYENjYyODAKBggqhkjOPQQDAgNJADBGAiEA4CpR
Tqw1lq/3kk+bHqTP7EaSY/4LjE/t8KZBLw+SjHsCIQDCeYl+9m16TmRNfXt9yJKz
/Qc0zDYgnL66EF+a0AeUrw==
-----END CERTIFICATE-----
