Certificate:
    Data:
        Version: 3 (0x2)
        Serial Number:
            53:2e:bb:a6:01:b7:b0:47:9c:31
    Signature Algorithm: ecdsa-with-SHA256
        Issuer: CN=SHAKEN Root, O=Some org, C=US
        Validity
            Not Before: Oct 25 17:01:54 2022 GMT
            Not After : Oct 26 17:01:54 2022 GMT
        Subject: O=Some org, C=US
        Subject Public Key Info:
            Public Key Algorithm: id-ecPublicKey
                Public-Key: (256 bit)
                pub: 
                    04:d8:e0:46:f1:19:41:83:0f:5a:2c:73:78:2f:3f:
                    0c:8b:06:21:e4:4f:fb:40:34:99:89:c6:33:2c:5c:
                    48:a5:18:2c:a1:e2:e3:e4:bd:79:d8:52:0e:c1:6c:
                    97:10:62:5e:d8:89:e5:21:1e:de:db:fe:e9:cd:c9:
                    4a:ba:d0:f3:48
                ASN1 OID: prime256v1
                NIST CURVE: P-256
        X509v3 extensions:
            X509v3 Basic Constraints: critical
                CA:TRUE
            X509v3 Key Usage: critical
                Certificate Sign
            X509v3 Certificate Policies: 
                Policy: 2.16.840.1.114569.1.1.3

            X509v3 Authority Key Identifier: 
                keyid:B1:7F:6B:D0:2E:AD:64:AF:55:0E:21:DD:EE:A4:8A:83:74:74:98:83

            X509v3 Subject Key Identifier: 
                0D:5D:1A:71:27:89:3A:12:1A:71:FD:B9:7C:20:80:F5:E0:44:FB:BF
            X509v3 CRL Distribution Points: 

                Full Name:
                  URI:http://crls.pki.goog/gts1c3/QOvJ0N1sT2A.crl

    Signature Algorithm: ecdsa-with-SHA256
         30:44:02:20:4b:af:5f:32:6b:22:ac:9e:c3:08:9c:25:48:c6:
         40:61:f1:19:65:5e:eb:44:e4:0e:d2:ee:cf:d3:43:43:01:91:
         02:20:21:06:d8:3a:62:87:d7:e4:9b:02:10:fc:19:49:85:de:
         ec:b3:e1:f3:f6:41:81:4e:2f:c3:42:54:c8:88:ea:cd
-----BEGIN CERTIFICATE-----
MIICCTCCAbCgAwIBAgIKUy67pgG3sEecMTAKBggqhkjOPQQDAjA2MRQwEgYDVQQD
EwtTSEFLRU4gUm9vdDERMA8GA1UEChMIU29tZSBvcmcxCzAJBgNVBAYTAlVTMB4X
DTIyMTAyNTE3MDE1NFoXDTIyMTAyNjE3MDE1NFowIDERMA8GA1UEChMIU29tZSBv
cmcxCzAJBgNVBAYTAlVTMFkwEwYHKoZIzj0CAQYIKoZIzj0DAQcDQgAE2OBG8RlB
gw9aLHN4Lz8MiwYh5E/7QDSZicYzLFxIpRgsoeLj5L152FIOwWyXEGJe2InlIR7e
2/7pzclKutDzSKOBuzCBuDAPBgNVHRMBAf8EBTADAQH/MA4GA1UdDwEB/wQEAwIC
BDAXBgNVHSAEEDAOMAwGCmCGSAGG/wkBAQMwHwYDVR0jBBgwFoAUsX9r0C6tZK9V
DiHd7qSKg3R0mIMwHQYDVR0OBBYEFA1dGnEniToSGnH9uXwggPXgRPu/MDwGA1Ud
HwQ1MDMwMaAvoC2GK2h0dHA6Ly9jcmxzLnBraS5nb29nL2d0czFjMy9RT3ZKME4x
c1QyQS5jcmwwCgYIKoZIzj0EAwIDRwAwRAIgS69fMmsirJ7DCJwlSMZAYfEZZV7r
ROQO0u7P00NDAZECICEG2Dpih9fkmwIQ/BlJhd7ss+Hz9kGBTi/DQlTIiOrN
-----END CERTIFICATE-----
