Certificate:
    Data:
        Version: 3 (0x2)
        Serial Number: 566265752454920 (0x2030405060708)
    Signature Algorithm: ecdsa-with-SHA256
        Issuer: CN=SHAKEN Root, O=Some org, C=US
        Validity
            Not Before: Oct 25 16:37:52 2022 GMT
            Not After : Oct 26 16:37:52 2022 GMT
        Subject: CN=SHAKEN Intermediate, O=Some org, C=US
        Subject Public Key Info:
            Public Key Algorithm: id-ecPublicKey
                Public-Key: (256 bit)
                pub: 
                    04:26:fd:e2:93:46:59:dc:77:3d:68:79:1f:04:47:
                    28:17:40:69:46:bc:13:3b:5f:d6:73:c3:2f:e7:e5:
                    d2:39:6e:b1:93:10:c1:d6:b8:74:01:8a:ea:ea:67:
                    10:26:20:fe:ab:44:a7:51:a5:9a:a7:86:92:e6:e2:
                    69:39:6d:78:56
                ASN1 OID: prime256v1
                NIST CURVE: P-256
        X509v3 extensions:
            X509v3 Basic Constraints: critical
                CA:TRUE
            X509v3 Key Usage: critical
                Certificate Sign
            X509v3 Certificate Policies: 
                Policy: 2.16.840.1.114569.1.1.3

            X509v3 Authority Key Identifier: 
                keyid:E6:94:FE:FE:6D:57:19:8C:79:6E:A2:82:B6:6F:19:C4:07:B7:48:80

            X509v3 Subject Key Identifier: 
                44:E3:2F:47:22:C6:BF:81:AD:60:F1:B6:B7:D4:3F:1E:D4:A9:14:B6
            X509v3 CRL Distribution Points: 

                Full Name:
                  URI:http://crls.pki.goog/gts1c3/QOvJ0N1sT2A.crl

    Signature Algorithm: ecdsa-with-SHA256
         30:44:02:20:39:ff:a0:66:0f:54:74:f3:9d:b0:b5:8a:47:c9:
         49:0f:e4:e1:41:ba:c9:d0:5b:03:df:dd:cf:14:a9:bc:ad:21:
         02:20:6d:77:bf:2f:45:bf:63:5c:68:74:f1:49:6b:81:e9:15:
         d1:39:ad:83:0f:0f:41:01:d6:cb:36:1f:f5:67:19:8a
-----BEGIN CERTIFICATE-----
MIICJDCCAcugAwIBAgIHAgMEBQYHCDAKBggqhkjOPQQDAjA2MRQwEgYDVQQDEwtT
SEFLRU4gUm9vdDERMA8GA1UEChMIU29tZSBvcmcxCzAJBgNVBAYTAlVTMB4XDTIy
MTAyNTE2Mzc1MloXDTIyMTAyNjE2Mzc1MlowPjEcMBoGA1UEAxMTU0hBS0VOIElu
dGVybWVkaWF0ZTERMA8GA1UEChMIU29tZSBvcmcxCzAJBgNVBAYTAlVTMFkwEwYH
KoZIzj0CAQYIKoZIzj0DAQcDQgAEJv3ik0ZZ3Hc9aHkfBEcoF0BpRrwTO1/Wc8Mv
5+XSOW6xkxDB1rh0AYrq6mcQJiD+q0SnUaWap4aS5uJpOW14VqOBuzCBuDAPBgNV
HRMBAf8EBTADAQH/MA4GA1UdDwEB/wQEAwICBDAXBgNVHSAEEDAOMAwGCmCGSAGG
/wkBAQMwHwYDVR0jBBgwFoAU5pT+/m1XGYx5bqKCtm8ZxAe3SIAwHQYDVR0OBBYE
FETjL0cixr+BrWDxtrfUPx7UqRS2MDwGA1UdHwQ1MDMwMaAvoC2GK2h0dHA6Ly9j
cmxzLnBraS5nb29nL2d0czFjMy9RT3ZKME4xc1QyQS5jcmwwCgYIKoZIzj0EAwID
RwAwRAIgOf+gZg9UdPOdsLWKR8lJD+ThQbrJ0FsD393PFKm8rSECIG13vy9Fv2Nc
aHTxSWuB6RXROa2DDw9BAdbLNh/1ZxmK
-----END CERTIFICATE-----
