Certificate:
    Data:
        Version: 3 (0x2)
        Serial Number:
            99:b5:60:f1:e8:4b:ac:8b:d3:98
    Signature Algorithm: ecdsa-with-SHA256
        Issuer: CN=SHAKEN Intermediate, O=Some org, C=US
        Validity
            Not Before: Oct 24 19:03:22 2022 GMT
            Not After : Oct 25 19:03:22 2022 GMT
        Subject: CN=SHAKEN 6628, O=Some org, C=US/serialNumber=12345
        Subject Public Key Info:
            Public Key Algorithm: id-ecPublicKey
                Public-Key: (256 bit)
                pub: 
                    04:b5:55:4a:40:ac:35:32:65:c3:85:3d:a7:04:d3:
                    68:3a:98:1f:5e:23:12:14:e6:11:7a:9d:c9:c9:01:
                    67:7d:0f:f5:0f:fa:df:3c:2e:7c:ed:fb:c5:ea:11:
                    74:6f:17:7a:13:6b:7e:2f:64:80:33:c5:5e:ce:ca:
                    20:0b:83:2f:e5
                ASN1 OID: prime256v1
                NIST CURVE: P-256
        X509v3 extensions:
            X509v3 Basic Constraints: critical
                CA:FALSE
            X509v3 Key Usage: 
                Digital Signature
            X509v3 Certificate Policies: 
                Policy: 1.2.3.4.5

            X509v3 Authority Key Identifier: 
                keyid:A2:99:17:14:2C:5B:A7:F1:AA:FC:33:14:79:99:E9:7C:A5:22:9C:F7

            X509v3 Subject Key Identifier: 
                21:03:CA:DE:B3:24:9F:30:EF:18:E4:A8:AB:03:79:6B:E6:2E:0F:30
            X509v3 CRL Distribution Points: 

                Full Name:
                  URI:https://authenticate-api.iconectiv.com/download/v1/crl

            1.3.6.1.5.5.7.1.26: 
                0.....6628
    Signature Algorithm: ecdsa-with-SHA256
         30:45:02:20:76:d9:a5:a8:e6:21:70:ae:56:cf:22:c9:2d:e1:
         e0:dd:73:ae:18:8b:23:9a:42:e9:fa:11:8e:24:3e:cb:b0:98:
         02:21:00:b3:52:54:02:50:8a:9c:f7:0c:fa:65:f9:8a:29:c3:
         cb:06:a3:4d:49:1c:5d:ce:46:7d:16:b6:6c:fc:04:41:c9
-----BEGIN CERTIFICATE-----
MIICUDCCAfagAwIBAgILAJm1YPHoS6yL05gwCgYIKoZIzj0EAwIwPjEcMBoGA1UE
AxMTU0hBS0VOIEludGVybWVkaWF0ZTERMA8GA1UEChMIU29tZSBvcmcxCzAJBgNV
BAYTAlVTMB4XDTIyMTAyNDE5MDMyMloXDTIyMTAyNTE5MDMyMlowRjEUMBIGA1UE
AxMLU0hBS0VOIDY2MjgxETAPBgNVBAoTCFNvbWUgb3JnMQswCQYDVQQGEwJVUzEO
MAwGA1UEBRMFMTIzNDUwWTATBgcqhkjOPQIBBggqhkjOPQMBBwNCAAS1VUpArDUy
ZcOFPacE02g6mB9eIxIU5hF6ncnJAWd9D/UP+t88Lnzt+8XqEXRvF3oTa34vZIAz
xV7OyiALgy/lo4HSMIHPMAwGA1UdEwEB/wQCMAAwCwYDVR0PBAQDAgeAMBEGA1Ud
IAQKMAgwBgYEKgMEBTAfBgNVHSMEGDAWgBSimRcULFun8ar8MxR5mel8pSKc9zAd
BgNVHQ4EFgQUIQPK3rMknzDvGOSoqwN5a+YuDzAwRwYDVR0fBEAwPjA8oDqgOIY2
aHR0cHM6Ly9hdXRoZW50aWNhdGUtYXBpLmljb25lY3Rpdi5jb20vZG93bmxvYWQv
djEvY3JsMBYGCCsGAQUFBwEaBAowCKAGFgQ2NjI4MAoGCCqGSM49BAMCA0gAMEUC
IHbZpajmIXCuVs8iyS3h4N1zrhiLI5pC6foRjiQ+y7CYAiEAs1JUAlCKnPcM+mX5
iinDywajTUkcXc5GfRa2bPwEQck=
-----END CERTIFICATE-----
