Certificate:
    Data:
        Version: 3 (0x2)
        Serial Number:
            99:34:e3:da:a8:aa:5b:8c:f4:a9
    Signature Algorithm: ecdsa-with-SHA256
        Issuer: CN=SHAKEN Intermediate, O=Some org, C=US
        Validity
            Not Before: Oct 27 00:40:52 2022 GMT
            Not After : Oct 28 00:40:52 2022 GMT
        Subject: CN=SHAKEN 6628, O=Some org, C=US/serialNumber=12345
        Subject Public Key Info:
            Public Key Algorithm: id-ecPublicKey
                Public-Key: (256 bit)
                pub: 
                    04:9b:80:1a:7b:34:dd:c8:65:a9:f4:ee:c0:19:56:
                    2f:e5:10:a0:00:c3:1c:31:07:b5:ea:22:4c:c0:a6:
                    04:32:29:cc:74:c2:f9:02:bf:b9:6a:a8:82:ec:35:
                    27:db:aa:c7:a6:72:a2:aa:e3:84:10:f2:53:f3:98:
                    20:ff:a5:ab:bf
                ASN1 OID: prime256v1
                NIST CURVE: P-256
        X509v3 extensions:
            X509v3 Basic Constraints: critical
                CA:FALSE
            X509v3 Key Usage: critical
                Digital Signature
            X509v3 Certificate Policies: 
                Policy: 2.16.840.1.114569.1.1.3

            X509v3 Authority Key Identifier: 
                keyid:C2:01:19:DD:56:05:06:C5:46:99:0D:95:BD:54:1E:AD:38:F2:F5:F1

            X509v3 Subject Key Identifier: 
                7B:94:2B:76:AB:93:76:09:C7:9F:43:48:F4:A0:6F:0D:94:F8:10:A6
            X509v3 CRL Distribution Points: 

                Full Name:
                  URI:https://authenticate-api.iconectiv.com/download/v1/crl

            1.3.6.1.5.5.7.1.26: 
                0.....6628
    Signature Algorithm: ecdsa-with-SHA256
         30:45:02:20:1d:f3:51:fe:6e:85:40:96:15:0b:dc:0e:a9:44:
         23:0a:af:2d:a6:ff:c9:06:3e:22:6a:25:8c:14:ff:70:c7:d6:
         02:21:00:f3:f7:c5:dd:35:ab:42:a2:a1:2d:26:77:67:1e:86:
         1d:52:5a:e5:bc:e1:4d:e0:09:1d:2f:c1:87:38:da:3a:91
-----BEGIN CERTIFICATE-----
MIICWTCCAf+gAwIBAgILAJk049qoqluM9KkwCgYIKoZIzj0EAwIwPjEcMBoGA1UE
AxMTU0hBS0VOIEludGVybWVkaWF0ZTERMA8GA1UEChMIU29tZSBvcmcxCzAJBgNV
BAYTAlVTMB4XDTIyMTAyNzAwNDA1MloXDTIyMTAyODAwNDA1MlowRjEUMBIGA1UE
AxMLU0hBS0VOIDY2MjgxETAPBgNVBAoTCFNvbWUgb3JnMQswCQYDVQQGEwJVUzEO
MAwGA1UEBRMFMTIzNDUwWTATBgcqhkjOPQIBBggqhkjOPQMBBwNCAASbgBp7NN3I
Zan07sAZVi/lEKAAwxwxB7XqIkzApgQyKcx0wvkCv7lqqILsNSfbqsemcqKq44QQ
8lPzmCD/pau/o4HbMIHYMAwGA1UdEwEB/wQCMAAwDgYDVR0PAQH/BAQDAgeAMBcG
A1UdIAQQMA4wDAYKYIZIAYb/CQEBAzAfBgNVHSMEGDAWgBTCARndVgUGxUaZDZW9
VB6tOPL18TAdBgNVHQ4EFgQUe5QrdquTdgnHn0NI9KBvDZT4EKYwRwYDVR0fBEAw
PjA8oDqgOIY2aHR0cHM6Ly9hdXRoZW50aWNhdGUtYXBpLmljb25lY3Rpdi5jb20v
ZG93bmxvYWQvdjEvY3JsMBYGCCsGAQUFBwEaBAowCKAGFgQ2NjI4MAoGCCqGSM49
BAMCA0gAMEUCIB3zUf5uhUCWFQvcDqlEIwqvLab/yQY+ImoljBT/cMfWAiEA8/fF
3TWrQqKhLSZ3Zx6GHVJa5bzhTeAJHS/BhzjaOpE=
-----END CERTIFICATE-----
