Certificate:
    Data:
        Version: 3 (0x2)
        Serial Number:
            23:01:f2:a3:8e:58:d4:5d:6f:47
    Signature Algorithm: ecdsa-with-SHA256
        Issuer: 
        Validity
            Not Before: Oct 24 19:16:33 2022 GMT
            Not After : Oct 25 19:16:33 2022 GMT
        Subject: 
        Subject Public Key Info:
            Public Key Algorithm: id-ecPublicKey
                Public-Key: (256 bit)
                pub: 
                    04:11:37:b9:a4:08:91:b5:d3:20:d5:4a:c3:24:40:
                    91:87:24:3a:dc:6d:a9:dc:1a:d4:94:68:63:3a:e5:
                    d5:60:b6:3a:cb:46:67:21:5d:ca:1e:09:79:6b:8a:
                    71:ab:21:4e:6a:d9:22:22:cd:5f:91:03:e0:7e:88:
                    81:03:20:17:43
                ASN1 OID: prime256v1
                NIST CURVE: P-256
    Signature Algorithm: ecdsa-with-SHA256
         30:44:02:20:1c:15:a6:76:04:53:09:a4:4d:49:8e:60:ba:61:
         c8:89:bf:92:d1:03:88:60:3b:2e:f3:1a:df:94:cf:ed:86:ac:
         02:20:65:93:a5:4e:ce:a6:fe:97:45:f3:4e:69:a4:23:b4:90:
         f2:80:72:a1:93:ad:1c:67:80:7a:88:20:7f:f9:6f:dc
-----BEGIN CERTIFICATE-----
MIH4MIGgoAMCAQICCiMB8qOOWNRdb0cwCgYIKoZIzj0EAwIwADAeFw0yMjEwMjQx
OTE2MzNaFw0yMjEwMjUxOTE2MzNaMAAwWTATBgcqhkjOPQIBBggqhkjOPQMBBwNC
AAQRN7mkCJG10yDVSsMkQJGHJDrcbancGtSUaGM65dVgtjrLRmchXcoeCXlrinGr
IU5q2SIizV+RA+B+iIEDIBdDowIwADAKBggqhkjOPQQDAgNHADBEAiAcFaZ2BFMJ
pE1JjmC6YciJv5LRA4hgOy7zGt+Uz+2GrAIgZZOlTs6m/pdF805ppCO0kPKAcqGT
rRxngHqIIH/5b9w=
-----END CERTIFICATE-----
