Certificate:
    Data:
        Version: 3 (0x2)
        Serial Number:
            20:cd:1b:b6:15:ad:c0:df:ea:27
    Signature Algorithm: ecdsa-with-SHA256
        Issuer: CN=SHAKEN Intermediate
        Validity
            Not Before: Oct 24 10:36:25 2022 GMT
            Not After : Oct 25 10:36:25 2022 GMT
        Subject: 
        Subject Public Key Info:
            Public Key Algorithm: id-ecPublicKey
                Public-Key: (256 bit)
                pub: 
                    04:ad:a1:e2:ef:31:e9:bc:74:c1:f4:8b:f1:70:91:
                    c0:bb:94:8a:55:7b:94:25:7b:b1:22:6d:e7:53:c9:
                    d1:f7:cc:32:49:25:51:34:e4:07:0f:8c:78:a6:0c:
                    6e:d6:39:b3:7a:1a:11:d1:6e:8b:23:18:c2:ea:b9:
                    54:36:88:85:e3
                ASN1 OID: prime256v1
                NIST CURVE: P-256
        X509v3 extensions:
            X509v3 Basic Constraints: critical
                CA:FALSE
            X509v3 Key Usage: 
                Certificate Sign, CRL Sign
    Signature Algorithm: ecdsa-with-SHA256
         30:46:02:21:00:ec:93:5c:b1:f4:91:39:ef:88:ef:7b:b4:06:
         b0:c6:c3:e5:e1:ac:f2:b9:a5:bf:65:75:17:a4:ea:79:3d:45:
         e2:02:21:00:d0:0f:0f:a6:a0:47:78:14:99:75:bf:10:02:6e:
         a7:b4:bc:24:88:fb:d8:3d:8b:af:62:44:7e:c1:b8:21:a7:3c
-----BEGIN CERTIFICATE-----
MIIBMzCB2aADAgECAgogzRu2Fa3A3+onMAoGCCqGSM49BAMCMB4xHDAaBgNVBAMT
E1NIQUtFTiBJbnRlcm1lZGlhdGUwHhcNMjIxMDI0MTAzNjI1WhcNMjIxMDI1MTAz
NjI1WjAAMFkwEwYHKoZIzj0CAQYIKoZIzj0DAQcDQgAEraHi7zHpvHTB9IvxcJHA
u5SKVXuUJXuxIm3nU8nR98wySSVRNOQHD4x4pgxu1jmzehoR0W6LIxjC6rlUNoiF
46MdMBswDAYDVR0TAQH/BAIwADALBgNVHQ8EBAMCAQYwCgYIKoZIzj0EAwIDSQAw
RgIhAOyTXLH0kTnviO97tAawxsPl4azyuaW/ZXUXpOp5PUXiAiEA0A8PpqBHeBSZ
db8QAm6ntLwkiPvYPYuvYkR+wbghpzw=
-----END CERTIFICATE-----
